

Microchip Technology PIC LITE Macro Assembler V1.37 build -260352376 
                                                                                               Fri May 26 18:28:20 2017

Microchip Technology Omniscient Code Generator v1.37 (Free mode) build 201603110536
     1                           	processor	16F1459
     2                           	opt	pw 120
     3                           	opt	lm
     4                           	psect	stringtext,global,class=STRCODE,delta=2
     5                           	psect	cinit,global,class=CODE,merge=1,delta=2
     6                           	psect	bssBANK1,global,class=BANK1,space=1,delta=1
     7                           	psect	bssBANK3,global,class=BANK3,space=1,delta=1
     8                           	psect	bssBANK4,global,class=BANK4,space=1,delta=1
     9                           	psect	bssBANK5,global,class=BANK5,space=1,delta=1
    10                           	psect	bssBANK6,global,class=BANK6,space=1,delta=1
    11                           	psect	bssBANK7,global,class=BANK7,space=1,delta=1
    12                           	psect	clrtext,global,class=CODE,delta=2
    13                           	psect	cstackBANK3,global,class=BANK3,space=1,delta=1
    14                           	psect	cstackBANK2,global,class=BANK2,space=1,delta=1
    15                           	psect	cstackBANK1,global,class=BANK1,space=1,delta=1
    16                           	psect	cstackCOMMON,global,class=COMMON,space=1,delta=1
    17                           	psect	cstackBANK0,global,class=BANK0,space=1,delta=1
    18                           	psect	maintext,global,class=CODE,merge=1,split=1,delta=2
    19                           	psect	text1,local,class=CODE,merge=1,delta=2
    20                           	psect	text2,local,class=CODE,merge=1,delta=2
    21                           	psect	text3,local,class=CODE,merge=1,delta=2
    22                           	psect	text4,local,class=CODE,merge=1,delta=2
    23                           	psect	text5,local,class=CODE,merge=1,delta=2
    24                           	psect	text6,local,class=CODE,merge=1,delta=2
    25                           	psect	text7,local,class=CODE,merge=1,delta=2
    26                           	psect	text8,local,class=CODE,merge=1,delta=2
    27                           	psect	text9,local,class=CODE,merge=1,delta=2
    28                           	psect	text10,local,class=CODE,merge=1,delta=2
    29                           	psect	intentry,global,class=CODE,delta=2
    30                           	psect	text12,local,class=CODE,merge=1,delta=2
    31                           	psect	text13,local,class=CODE,merge=1,delta=2
    32                           	psect	text14,local,class=CODE,merge=1,delta=2
    33                           	psect	text15,local,class=CODE,merge=1,delta=2
    34                           	psect	text16,local,class=CODE,merge=1,delta=2
    35                           	psect	text17,local,class=CODE,merge=1,delta=2
    36                           	psect	text18,local,class=CODE,merge=1,delta=2
    37                           	psect	text19,local,class=CODE,merge=1,delta=2
    38                           	psect	text20,local,class=CODE,merge=1,delta=2
    39                           	psect	text21,local,class=CODE,merge=1,delta=2
    40                           	psect	text22,local,class=CODE,merge=1,delta=2
    41                           	psect	swtext1,local,class=CONST,delta=2
    42                           	psect	text23,local,class=CODE,merge=1,delta=2
    43                           	psect	text24,local,class=CODE,merge=1,delta=2
    44                           	psect	text25,local,class=CODE,merge=1,delta=2
    45                           	psect	text26,local,class=CODE,merge=1,delta=2
    46                           	psect	text27,local,class=CODE,merge=1,delta=2
    47                           	psect	text28,local,class=CODE,merge=1,delta=2
    48                           	psect	text29,local,class=CODE,merge=1,delta=2
    49                           	psect	text30,local,class=CODE,merge=1,delta=2
    50                           	psect	text31,local,class=CODE,merge=1,delta=2
    51                           	psect	text32,local,class=CODE,merge=1,delta=2
    52                           	psect	text33,local,class=CODE,merge=1,delta=2
    53                           	psect	text34,local,class=CODE,merge=1,delta=2
    54                           	psect	text35,local,class=CODE,merge=1,delta=2
    55                           	psect	text36,local,class=CODE,merge=1,delta=2
    56                           	psect	text37,local,class=CODE,merge=1,delta=2
    57                           	psect	text38,local,class=CODE,merge=1,delta=2
    58                           	psect	text39,local,class=CODE,merge=1,delta=2
    59                           	dabs	1,0x20,48,_BDT
    60                           	dabs	1,0x58,8,_CtrlTrfData
    61                           	dabs	1,0x50,8,_SetupPkt
    62                           	dabs	1,0xA0,64,_cdc_data_tx
    63                           	dabs	1,0x120,64,_cdc_data_rx
    64                           	dabs	1,0x7E,2
    65  0000                     	;# 
    66  0001                     	;# 
    67  0002                     	;# 
    68  0003                     	;# 
    69  0004                     	;# 
    70  0005                     	;# 
    71  0006                     	;# 
    72  0007                     	;# 
    73  0008                     	;# 
    74  0009                     	;# 
    75  000A                     	;# 
    76  000B                     	;# 
    77  000C                     	;# 
    78  000D                     	;# 
    79  000E                     	;# 
    80  0011                     	;# 
    81  0012                     	;# 
    82  0015                     	;# 
    83  0016                     	;# 
    84  0016                     	;# 
    85  0017                     	;# 
    86  0018                     	;# 
    87  0019                     	;# 
    88  001A                     	;# 
    89  001B                     	;# 
    90  001C                     	;# 
    91  008C                     	;# 
    92  008D                     	;# 
    93  008E                     	;# 
    94  0091                     	;# 
    95  0092                     	;# 
    96  0095                     	;# 
    97  0096                     	;# 
    98  0097                     	;# 
    99  0098                     	;# 
   100  0099                     	;# 
   101  009A                     	;# 
   102  009B                     	;# 
   103  009B                     	;# 
   104  009C                     	;# 
   105  009D                     	;# 
   106  009E                     	;# 
   107  009F                     	;# 
   108  010C                     	;# 
   109  010D                     	;# 
   110  010E                     	;# 
   111  0111                     	;# 
   112  0112                     	;# 
   113  0113                     	;# 
   114  0114                     	;# 
   115  0115                     	;# 
   116  0116                     	;# 
   117  0117                     	;# 
   118  0118                     	;# 
   119  0119                     	;# 
   120  011D                     	;# 
   121  018C                     	;# 
   122  018D                     	;# 
   123  018E                     	;# 
   124  0191                     	;# 
   125  0191                     	;# 
   126  0192                     	;# 
   127  0193                     	;# 
   128  0193                     	;# 
   129  0194                     	;# 
   130  0195                     	;# 
   131  0196                     	;# 
   132  0197                     	;# 
   133  0199                     	;# 
   134  019A                     	;# 
   135  019B                     	;# 
   136  019B                     	;# 
   137  019C                     	;# 
   138  019D                     	;# 
   139  019E                     	;# 
   140  019F                     	;# 
   141  020C                     	;# 
   142  020D                     	;# 
   143  0211                     	;# 
   144  0211                     	;# 
   145  0212                     	;# 
   146  0212                     	;# 
   147  0213                     	;# 
   148  0213                     	;# 
   149  0214                     	;# 
   150  0214                     	;# 
   151  0215                     	;# 
   152  0215                     	;# 
   153  0215                     	;# 
   154  0216                     	;# 
   155  0216                     	;# 
   156  0217                     	;# 
   157  0217                     	;# 
   158  0391                     	;# 
   159  0392                     	;# 
   160  0393                     	;# 
   161  0394                     	;# 
   162  0395                     	;# 
   163  0396                     	;# 
   164  039A                     	;# 
   165  039B                     	;# 
   166  0611                     	;# 
   167  0612                     	;# 
   168  0613                     	;# 
   169  0613                     	;# 
   170  0614                     	;# 
   171  0615                     	;# 
   172  0616                     	;# 
   173  0616                     	;# 
   174  0691                     	;# 
   175  0692                     	;# 
   176  0693                     	;# 
   177  0694                     	;# 
   178  0695                     	;# 
   179  0E8E                     	;# 
   180  0E8F                     	;# 
   181  0E90                     	;# 
   182  0E91                     	;# 
   183  0E92                     	;# 
   184  0E93                     	;# 
   185  0E94                     	;# 
   186  0E94                     	;# 
   187  0E95                     	;# 
   188  0E96                     	;# 
   189  0E97                     	;# 
   190  0E98                     	;# 
   191  0E99                     	;# 
   192  0E9A                     	;# 
   193  0E9B                     	;# 
   194  0E9C                     	;# 
   195  0E9D                     	;# 
   196  0E9E                     	;# 
   197  0E9F                     	;# 
   198  0FE4                     	;# 
   199  0FE5                     	;# 
   200  0FE6                     	;# 
   201  0FE7                     	;# 
   202  0FE8                     	;# 
   203  0FE9                     	;# 
   204  0FEA                     	;# 
   205  0FEB                     	;# 
   206  0FED                     	;# 
   207  0FEE                     	;# 
   208  0FEF                     	;# 
   209  0000                     	;# 
   210  0001                     	;# 
   211  0002                     	;# 
   212  0003                     	;# 
   213  0004                     	;# 
   214  0005                     	;# 
   215  0006                     	;# 
   216  0007                     	;# 
   217  0008                     	;# 
   218  0009                     	;# 
   219  000A                     	;# 
   220  000B                     	;# 
   221  000C                     	;# 
   222  000D                     	;# 
   223  000E                     	;# 
   224  0011                     	;# 
   225  0012                     	;# 
   226  0015                     	;# 
   227  0016                     	;# 
   228  0016                     	;# 
   229  0017                     	;# 
   230  0018                     	;# 
   231  0019                     	;# 
   232  001A                     	;# 
   233  001B                     	;# 
   234  001C                     	;# 
   235  008C                     	;# 
   236  008D                     	;# 
   237  008E                     	;# 
   238  0091                     	;# 
   239  0092                     	;# 
   240  0095                     	;# 
   241  0096                     	;# 
   242  0097                     	;# 
   243  0098                     	;# 
   244  0099                     	;# 
   245  009A                     	;# 
   246  009B                     	;# 
   247  009B                     	;# 
   248  009C                     	;# 
   249  009D                     	;# 
   250  009E                     	;# 
   251  009F                     	;# 
   252  010C                     	;# 
   253  010D                     	;# 
   254  010E                     	;# 
   255  0111                     	;# 
   256  0112                     	;# 
   257  0113                     	;# 
   258  0114                     	;# 
   259  0115                     	;# 
   260  0116                     	;# 
   261  0117                     	;# 
   262  0118                     	;# 
   263  0119                     	;# 
   264  011D                     	;# 
   265  018C                     	;# 
   266  018D                     	;# 
   267  018E                     	;# 
   268  0191                     	;# 
   269  0191                     	;# 
   270  0192                     	;# 
   271  0193                     	;# 
   272  0193                     	;# 
   273  0194                     	;# 
   274  0195                     	;# 
   275  0196                     	;# 
   276  0197                     	;# 
   277  0199                     	;# 
   278  019A                     	;# 
   279  019B                     	;# 
   280  019B                     	;# 
   281  019C                     	;# 
   282  019D                     	;# 
   283  019E                     	;# 
   284  019F                     	;# 
   285  020C                     	;# 
   286  020D                     	;# 
   287  0211                     	;# 
   288  0211                     	;# 
   289  0212                     	;# 
   290  0212                     	;# 
   291  0213                     	;# 
   292  0213                     	;# 
   293  0214                     	;# 
   294  0214                     	;# 
   295  0215                     	;# 
   296  0215                     	;# 
   297  0215                     	;# 
   298  0216                     	;# 
   299  0216                     	;# 
   300  0217                     	;# 
   301  0217                     	;# 
   302  0391                     	;# 
   303  0392                     	;# 
   304  0393                     	;# 
   305  0394                     	;# 
   306  0395                     	;# 
   307  0396                     	;# 
   308  039A                     	;# 
   309  039B                     	;# 
   310  0611                     	;# 
   311  0612                     	;# 
   312  0613                     	;# 
   313  0613                     	;# 
   314  0614                     	;# 
   315  0615                     	;# 
   316  0616                     	;# 
   317  0616                     	;# 
   318  0691                     	;# 
   319  0692                     	;# 
   320  0693                     	;# 
   321  0694                     	;# 
   322  0695                     	;# 
   323  0E8E                     	;# 
   324  0E8F                     	;# 
   325  0E90                     	;# 
   326  0E91                     	;# 
   327  0E92                     	;# 
   328  0E93                     	;# 
   329  0E94                     	;# 
   330  0E94                     	;# 
   331  0E95                     	;# 
   332  0E96                     	;# 
   333  0E97                     	;# 
   334  0E98                     	;# 
   335  0E99                     	;# 
   336  0E9A                     	;# 
   337  0E9B                     	;# 
   338  0E9C                     	;# 
   339  0E9D                     	;# 
   340  0E9E                     	;# 
   341  0E9F                     	;# 
   342  0FE4                     	;# 
   343  0FE5                     	;# 
   344  0FE6                     	;# 
   345  0FE7                     	;# 
   346  0FE8                     	;# 
   347  0FE9                     	;# 
   348  0FEA                     	;# 
   349  0FEB                     	;# 
   350  0FED                     	;# 
   351  0FEE                     	;# 
   352  0FEF                     	;# 
   353  0000                     	;# 
   354  0001                     	;# 
   355  0002                     	;# 
   356  0003                     	;# 
   357  0004                     	;# 
   358  0005                     	;# 
   359  0006                     	;# 
   360  0007                     	;# 
   361  0008                     	;# 
   362  0009                     	;# 
   363  000A                     	;# 
   364  000B                     	;# 
   365  000C                     	;# 
   366  000D                     	;# 
   367  000E                     	;# 
   368  0011                     	;# 
   369  0012                     	;# 
   370  0015                     	;# 
   371  0016                     	;# 
   372  0016                     	;# 
   373  0017                     	;# 
   374  0018                     	;# 
   375  0019                     	;# 
   376  001A                     	;# 
   377  001B                     	;# 
   378  001C                     	;# 
   379  008C                     	;# 
   380  008D                     	;# 
   381  008E                     	;# 
   382  0091                     	;# 
   383  0092                     	;# 
   384  0095                     	;# 
   385  0096                     	;# 
   386  0097                     	;# 
   387  0098                     	;# 
   388  0099                     	;# 
   389  009A                     	;# 
   390  009B                     	;# 
   391  009B                     	;# 
   392  009C                     	;# 
   393  009D                     	;# 
   394  009E                     	;# 
   395  009F                     	;# 
   396  010C                     	;# 
   397  010D                     	;# 
   398  010E                     	;# 
   399  0111                     	;# 
   400  0112                     	;# 
   401  0113                     	;# 
   402  0114                     	;# 
   403  0115                     	;# 
   404  0116                     	;# 
   405  0117                     	;# 
   406  0118                     	;# 
   407  0119                     	;# 
   408  011D                     	;# 
   409  018C                     	;# 
   410  018D                     	;# 
   411  018E                     	;# 
   412  0191                     	;# 
   413  0191                     	;# 
   414  0192                     	;# 
   415  0193                     	;# 
   416  0193                     	;# 
   417  0194                     	;# 
   418  0195                     	;# 
   419  0196                     	;# 
   420  0197                     	;# 
   421  0199                     	;# 
   422  019A                     	;# 
   423  019B                     	;# 
   424  019B                     	;# 
   425  019C                     	;# 
   426  019D                     	;# 
   427  019E                     	;# 
   428  019F                     	;# 
   429  020C                     	;# 
   430  020D                     	;# 
   431  0211                     	;# 
   432  0211                     	;# 
   433  0212                     	;# 
   434  0212                     	;# 
   435  0213                     	;# 
   436  0213                     	;# 
   437  0214                     	;# 
   438  0214                     	;# 
   439  0215                     	;# 
   440  0215                     	;# 
   441  0215                     	;# 
   442  0216                     	;# 
   443  0216                     	;# 
   444  0217                     	;# 
   445  0217                     	;# 
   446  0391                     	;# 
   447  0392                     	;# 
   448  0393                     	;# 
   449  0394                     	;# 
   450  0395                     	;# 
   451  0396                     	;# 
   452  039A                     	;# 
   453  039B                     	;# 
   454  0611                     	;# 
   455  0612                     	;# 
   456  0613                     	;# 
   457  0613                     	;# 
   458  0614                     	;# 
   459  0615                     	;# 
   460  0616                     	;# 
   461  0616                     	;# 
   462  0691                     	;# 
   463  0692                     	;# 
   464  0693                     	;# 
   465  0694                     	;# 
   466  0695                     	;# 
   467  0E8E                     	;# 
   468  0E8F                     	;# 
   469  0E90                     	;# 
   470  0E91                     	;# 
   471  0E92                     	;# 
   472  0E93                     	;# 
   473  0E94                     	;# 
   474  0E94                     	;# 
   475  0E95                     	;# 
   476  0E96                     	;# 
   477  0E97                     	;# 
   478  0E98                     	;# 
   479  0E99                     	;# 
   480  0E9A                     	;# 
   481  0E9B                     	;# 
   482  0E9C                     	;# 
   483  0E9D                     	;# 
   484  0E9E                     	;# 
   485  0E9F                     	;# 
   486  0FE4                     	;# 
   487  0FE5                     	;# 
   488  0FE6                     	;# 
   489  0FE7                     	;# 
   490  0FE8                     	;# 
   491  0FE9                     	;# 
   492  0FEA                     	;# 
   493  0FEB                     	;# 
   494  0FED                     	;# 
   495  0FEE                     	;# 
   496  0FEF                     	;# 
   497  0000                     	;# 
   498  0001                     	;# 
   499  0002                     	;# 
   500  0003                     	;# 
   501  0004                     	;# 
   502  0005                     	;# 
   503  0006                     	;# 
   504  0007                     	;# 
   505  0008                     	;# 
   506  0009                     	;# 
   507  000A                     	;# 
   508  000B                     	;# 
   509  000C                     	;# 
   510  000D                     	;# 
   511  000E                     	;# 
   512  0011                     	;# 
   513  0012                     	;# 
   514  0015                     	;# 
   515  0016                     	;# 
   516  0016                     	;# 
   517  0017                     	;# 
   518  0018                     	;# 
   519  0019                     	;# 
   520  001A                     	;# 
   521  001B                     	;# 
   522  001C                     	;# 
   523  008C                     	;# 
   524  008D                     	;# 
   525  008E                     	;# 
   526  0091                     	;# 
   527  0092                     	;# 
   528  0095                     	;# 
   529  0096                     	;# 
   530  0097                     	;# 
   531  0098                     	;# 
   532  0099                     	;# 
   533  009A                     	;# 
   534  009B                     	;# 
   535  009B                     	;# 
   536  009C                     	;# 
   537  009D                     	;# 
   538  009E                     	;# 
   539  009F                     	;# 
   540  010C                     	;# 
   541  010D                     	;# 
   542  010E                     	;# 
   543  0111                     	;# 
   544  0112                     	;# 
   545  0113                     	;# 
   546  0114                     	;# 
   547  0115                     	;# 
   548  0116                     	;# 
   549  0117                     	;# 
   550  0118                     	;# 
   551  0119                     	;# 
   552  011D                     	;# 
   553  018C                     	;# 
   554  018D                     	;# 
   555  018E                     	;# 
   556  0191                     	;# 
   557  0191                     	;# 
   558  0192                     	;# 
   559  0193                     	;# 
   560  0193                     	;# 
   561  0194                     	;# 
   562  0195                     	;# 
   563  0196                     	;# 
   564  0197                     	;# 
   565  0199                     	;# 
   566  019A                     	;# 
   567  019B                     	;# 
   568  019B                     	;# 
   569  019C                     	;# 
   570  019D                     	;# 
   571  019E                     	;# 
   572  019F                     	;# 
   573  020C                     	;# 
   574  020D                     	;# 
   575  0211                     	;# 
   576  0211                     	;# 
   577  0212                     	;# 
   578  0212                     	;# 
   579  0213                     	;# 
   580  0213                     	;# 
   581  0214                     	;# 
   582  0214                     	;# 
   583  0215                     	;# 
   584  0215                     	;# 
   585  0215                     	;# 
   586  0216                     	;# 
   587  0216                     	;# 
   588  0217                     	;# 
   589  0217                     	;# 
   590  0391                     	;# 
   591  0392                     	;# 
   592  0393                     	;# 
   593  0394                     	;# 
   594  0395                     	;# 
   595  0396                     	;# 
   596  039A                     	;# 
   597  039B                     	;# 
   598  0611                     	;# 
   599  0612                     	;# 
   600  0613                     	;# 
   601  0613                     	;# 
   602  0614                     	;# 
   603  0615                     	;# 
   604  0616                     	;# 
   605  0616                     	;# 
   606  0691                     	;# 
   607  0692                     	;# 
   608  0693                     	;# 
   609  0694                     	;# 
   610  0695                     	;# 
   611  0E8E                     	;# 
   612  0E8F                     	;# 
   613  0E90                     	;# 
   614  0E91                     	;# 
   615  0E92                     	;# 
   616  0E93                     	;# 
   617  0E94                     	;# 
   618  0E94                     	;# 
   619  0E95                     	;# 
   620  0E96                     	;# 
   621  0E97                     	;# 
   622  0E98                     	;# 
   623  0E99                     	;# 
   624  0E9A                     	;# 
   625  0E9B                     	;# 
   626  0E9C                     	;# 
   627  0E9D                     	;# 
   628  0E9E                     	;# 
   629  0E9F                     	;# 
   630  0FE4                     	;# 
   631  0FE5                     	;# 
   632  0FE6                     	;# 
   633  0FE7                     	;# 
   634  0FE8                     	;# 
   635  0FE9                     	;# 
   636  0FEA                     	;# 
   637  0FEB                     	;# 
   638  0FED                     	;# 
   639  0FEE                     	;# 
   640  0FEF                     	;# 
   641  0000                     	;# 
   642  0001                     	;# 
   643  0002                     	;# 
   644  0003                     	;# 
   645  0004                     	;# 
   646  0005                     	;# 
   647  0006                     	;# 
   648  0007                     	;# 
   649  0008                     	;# 
   650  0009                     	;# 
   651  000A                     	;# 
   652  000B                     	;# 
   653  000C                     	;# 
   654  000D                     	;# 
   655  000E                     	;# 
   656  0011                     	;# 
   657  0012                     	;# 
   658  0015                     	;# 
   659  0016                     	;# 
   660  0016                     	;# 
   661  0017                     	;# 
   662  0018                     	;# 
   663  0019                     	;# 
   664  001A                     	;# 
   665  001B                     	;# 
   666  001C                     	;# 
   667  008C                     	;# 
   668  008D                     	;# 
   669  008E                     	;# 
   670  0091                     	;# 
   671  0092                     	;# 
   672  0095                     	;# 
   673  0096                     	;# 
   674  0097                     	;# 
   675  0098                     	;# 
   676  0099                     	;# 
   677  009A                     	;# 
   678  009B                     	;# 
   679  009B                     	;# 
   680  009C                     	;# 
   681  009D                     	;# 
   682  009E                     	;# 
   683  009F                     	;# 
   684  010C                     	;# 
   685  010D                     	;# 
   686  010E                     	;# 
   687  0111                     	;# 
   688  0112                     	;# 
   689  0113                     	;# 
   690  0114                     	;# 
   691  0115                     	;# 
   692  0116                     	;# 
   693  0117                     	;# 
   694  0118                     	;# 
   695  0119                     	;# 
   696  011D                     	;# 
   697  018C                     	;# 
   698  018D                     	;# 
   699  018E                     	;# 
   700  0191                     	;# 
   701  0191                     	;# 
   702  0192                     	;# 
   703  0193                     	;# 
   704  0193                     	;# 
   705  0194                     	;# 
   706  0195                     	;# 
   707  0196                     	;# 
   708  0197                     	;# 
   709  0199                     	;# 
   710  019A                     	;# 
   711  019B                     	;# 
   712  019B                     	;# 
   713  019C                     	;# 
   714  019D                     	;# 
   715  019E                     	;# 
   716  019F                     	;# 
   717  020C                     	;# 
   718  020D                     	;# 
   719  0211                     	;# 
   720  0211                     	;# 
   721  0212                     	;# 
   722  0212                     	;# 
   723  0213                     	;# 
   724  0213                     	;# 
   725  0214                     	;# 
   726  0214                     	;# 
   727  0215                     	;# 
   728  0215                     	;# 
   729  0215                     	;# 
   730  0216                     	;# 
   731  0216                     	;# 
   732  0217                     	;# 
   733  0217                     	;# 
   734  0391                     	;# 
   735  0392                     	;# 
   736  0393                     	;# 
   737  0394                     	;# 
   738  0395                     	;# 
   739  0396                     	;# 
   740  039A                     	;# 
   741  039B                     	;# 
   742  0611                     	;# 
   743  0612                     	;# 
   744  0613                     	;# 
   745  0613                     	;# 
   746  0614                     	;# 
   747  0615                     	;# 
   748  0616                     	;# 
   749  0616                     	;# 
   750  0691                     	;# 
   751  0692                     	;# 
   752  0693                     	;# 
   753  0694                     	;# 
   754  0695                     	;# 
   755  0E8E                     	;# 
   756  0E8F                     	;# 
   757  0E90                     	;# 
   758  0E91                     	;# 
   759  0E92                     	;# 
   760  0E93                     	;# 
   761  0E94                     	;# 
   762  0E94                     	;# 
   763  0E95                     	;# 
   764  0E96                     	;# 
   765  0E97                     	;# 
   766  0E98                     	;# 
   767  0E99                     	;# 
   768  0E9A                     	;# 
   769  0E9B                     	;# 
   770  0E9C                     	;# 
   771  0E9D                     	;# 
   772  0E9E                     	;# 
   773  0E9F                     	;# 
   774  0FE4                     	;# 
   775  0FE5                     	;# 
   776  0FE6                     	;# 
   777  0FE7                     	;# 
   778  0FE8                     	;# 
   779  0FE9                     	;# 
   780  0FEA                     	;# 
   781  0FEB                     	;# 
   782  0FED                     	;# 
   783  0FEE                     	;# 
   784  0FEF                     	;# 
   785  0000                     	;# 
   786  0001                     	;# 
   787  0002                     	;# 
   788  0003                     	;# 
   789  0004                     	;# 
   790  0005                     	;# 
   791  0006                     	;# 
   792  0007                     	;# 
   793  0008                     	;# 
   794  0009                     	;# 
   795  000A                     	;# 
   796  000B                     	;# 
   797  000C                     	;# 
   798  000D                     	;# 
   799  000E                     	;# 
   800  0011                     	;# 
   801  0012                     	;# 
   802  0015                     	;# 
   803  0016                     	;# 
   804  0016                     	;# 
   805  0017                     	;# 
   806  0018                     	;# 
   807  0019                     	;# 
   808  001A                     	;# 
   809  001B                     	;# 
   810  001C                     	;# 
   811  008C                     	;# 
   812  008D                     	;# 
   813  008E                     	;# 
   814  0091                     	;# 
   815  0092                     	;# 
   816  0095                     	;# 
   817  0096                     	;# 
   818  0097                     	;# 
   819  0098                     	;# 
   820  0099                     	;# 
   821  009A                     	;# 
   822  009B                     	;# 
   823  009B                     	;# 
   824  009C                     	;# 
   825  009D                     	;# 
   826  009E                     	;# 
   827  009F                     	;# 
   828  010C                     	;# 
   829  010D                     	;# 
   830  010E                     	;# 
   831  0111                     	;# 
   832  0112                     	;# 
   833  0113                     	;# 
   834  0114                     	;# 
   835  0115                     	;# 
   836  0116                     	;# 
   837  0117                     	;# 
   838  0118                     	;# 
   839  0119                     	;# 
   840  011D                     	;# 
   841  018C                     	;# 
   842  018D                     	;# 
   843  018E                     	;# 
   844  0191                     	;# 
   845  0191                     	;# 
   846  0192                     	;# 
   847  0193                     	;# 
   848  0193                     	;# 
   849  0194                     	;# 
   850  0195                     	;# 
   851  0196                     	;# 
   852  0197                     	;# 
   853  0199                     	;# 
   854  019A                     	;# 
   855  019B                     	;# 
   856  019B                     	;# 
   857  019C                     	;# 
   858  019D                     	;# 
   859  019E                     	;# 
   860  019F                     	;# 
   861  020C                     	;# 
   862  020D                     	;# 
   863  0211                     	;# 
   864  0211                     	;# 
   865  0212                     	;# 
   866  0212                     	;# 
   867  0213                     	;# 
   868  0213                     	;# 
   869  0214                     	;# 
   870  0214                     	;# 
   871  0215                     	;# 
   872  0215                     	;# 
   873  0215                     	;# 
   874  0216                     	;# 
   875  0216                     	;# 
   876  0217                     	;# 
   877  0217                     	;# 
   878  0391                     	;# 
   879  0392                     	;# 
   880  0393                     	;# 
   881  0394                     	;# 
   882  0395                     	;# 
   883  0396                     	;# 
   884  039A                     	;# 
   885  039B                     	;# 
   886  0611                     	;# 
   887  0612                     	;# 
   888  0613                     	;# 
   889  0613                     	;# 
   890  0614                     	;# 
   891  0615                     	;# 
   892  0616                     	;# 
   893  0616                     	;# 
   894  0691                     	;# 
   895  0692                     	;# 
   896  0693                     	;# 
   897  0694                     	;# 
   898  0695                     	;# 
   899  0E8E                     	;# 
   900  0E8F                     	;# 
   901  0E90                     	;# 
   902  0E91                     	;# 
   903  0E92                     	;# 
   904  0E93                     	;# 
   905  0E94                     	;# 
   906  0E94                     	;# 
   907  0E95                     	;# 
   908  0E96                     	;# 
   909  0E97                     	;# 
   910  0E98                     	;# 
   911  0E99                     	;# 
   912  0E9A                     	;# 
   913  0E9B                     	;# 
   914  0E9C                     	;# 
   915  0E9D                     	;# 
   916  0E9E                     	;# 
   917  0E9F                     	;# 
   918  0FE4                     	;# 
   919  0FE5                     	;# 
   920  0FE6                     	;# 
   921  0FE7                     	;# 
   922  0FE8                     	;# 
   923  0FE9                     	;# 
   924  0FEA                     	;# 
   925  0FEB                     	;# 
   926  0FED                     	;# 
   927  0FEE                     	;# 
   928  0FEF                     	;# 
   929                           
   930                           	psect	stringtext
   931  04CC                     __pstringtext:	
   932  04CC                     _USB_SD_Ptr:	
   933  04CC  3491               	retlw	low (_sd000| (0+32768))
   934  04CD  3485               	retlw	high (_sd000| (0+32768))
   935  04CE  3417               	retlw	low (_sd001| (0+32768))
   936  04CF  3485               	retlw	high (_sd001| (0+32768))
   937  04D0  344B               	retlw	low (_sd002| (0+32768))
   938  04D1  3485               	retlw	high (_sd002| (0+32768))
   939  04D2                     __end_of_USB_SD_Ptr:	
   940  04D2                     _USB_CD_Ptr:	
   941  04D2  34D4               	retlw	low (_configDescriptor1| (0+32768))
   942  04D3  3484               	retlw	high (_configDescriptor1| (0+32768))
   943  04D4                     __end_of_USB_CD_Ptr:	
   944  04D4                     _configDescriptor1:	
   945  04D4  3409               	retlw	9
   946  04D5  3402               	retlw	2
   947  04D6  3443               	retlw	67
   948  04D7  3400               	retlw	0
   949  04D8  3402               	retlw	2
   950  04D9  3401               	retlw	1
   951  04DA  3400               	retlw	0
   952  04DB  34C0               	retlw	192
   953  04DC  3432               	retlw	50
   954  04DD  3409               	retlw	9
   955  04DE  3404               	retlw	4
   956  04DF  3400               	retlw	0
   957  04E0  3400               	retlw	0
   958  04E1  3401               	retlw	1
   959  04E2  3402               	retlw	2
   960  04E3  3402               	retlw	2
   961  04E4  3401               	retlw	1
   962  04E5  3400               	retlw	0
   963  04E6  3405               	retlw	5
   964  04E7  3424               	retlw	36
   965  04E8  3400               	retlw	0
   966  04E9  3410               	retlw	16
   967  04EA  3401               	retlw	1
   968  04EB  3404               	retlw	4
   969  04EC  3424               	retlw	36
   970  04ED  3402               	retlw	2
   971  04EE  3402               	retlw	2
   972  04EF  3405               	retlw	5
   973  04F0  3424               	retlw	36
   974  04F1  3406               	retlw	6
   975  04F2  3400               	retlw	0
   976  04F3  3401               	retlw	1
   977  04F4  3405               	retlw	5
   978  04F5  3424               	retlw	36
   979  04F6  3401               	retlw	1
   980  04F7  3400               	retlw	0
   981  04F8  3401               	retlw	1
   982  04F9  3407               	retlw	7
   983  04FA  3405               	retlw	5
   984  04FB  3481               	retlw	129
   985  04FC  3403               	retlw	3
   986  04FD  3408               	retlw	8
   987  04FE  3400               	retlw	0
   988  04FF  3402               	retlw	2
   989  0500  3409               	retlw	9
   990  0501  3404               	retlw	4
   991  0502  3401               	retlw	1
   992  0503  3400               	retlw	0
   993  0504  3402               	retlw	2
   994  0505  340A               	retlw	10
   995  0506  3400               	retlw	0
   996  0507  3400               	retlw	0
   997  0508  3400               	retlw	0
   998  0509  3407               	retlw	7
   999  050A  3405               	retlw	5
  1000  050B  3402               	retlw	2
  1001  050C  3402               	retlw	2
  1002  050D  3440               	retlw	64
  1003  050E  3400               	retlw	0
  1004  050F  3400               	retlw	0
  1005  0510  3407               	retlw	7
  1006  0511  3405               	retlw	5
  1007  0512  3482               	retlw	130
  1008  0513  3402               	retlw	2
  1009  0514  3440               	retlw	64
  1010  0515  3400               	retlw	0
  1011  0516  3400               	retlw	0
  1012  0517                     __end_of_configDescriptor1:	
  1013  0517                     _sd001:	
  1014  0517  3434               	retlw	52
  1015  0518  3403               	retlw	3
  1016  0519  344D               	retlw	77
  1017  051A  3400               	retlw	0
  1018  051B  3469               	retlw	105
  1019  051C  3400               	retlw	0
  1020  051D  3463               	retlw	99
  1021  051E  3400               	retlw	0
  1022  051F  3472               	retlw	114
  1023  0520  3400               	retlw	0
  1024  0521  346F               	retlw	111
  1025  0522  3400               	retlw	0
  1026  0523  3463               	retlw	99
  1027  0524  3400               	retlw	0
  1028  0525  3468               	retlw	104
  1029  0526  3400               	retlw	0
  1030  0527  3469               	retlw	105
  1031  0528  3400               	retlw	0
  1032  0529  3470               	retlw	112
  1033  052A  3400               	retlw	0
  1034  052B  3420               	retlw	32
  1035  052C  3400               	retlw	0
  1036  052D  3454               	retlw	84
  1037  052E  3400               	retlw	0
  1038  052F  3465               	retlw	101
  1039  0530  3400               	retlw	0
  1040  0531  3463               	retlw	99
  1041  0532  3400               	retlw	0
  1042  0533  3468               	retlw	104
  1043  0534  3400               	retlw	0
  1044  0535  346E               	retlw	110
  1045  0536  3400               	retlw	0
  1046  0537  346F               	retlw	111
  1047  0538  3400               	retlw	0
  1048  0539  346C               	retlw	108
  1049  053A  3400               	retlw	0
  1050  053B  346F               	retlw	111
  1051  053C  3400               	retlw	0
  1052  053D  3467               	retlw	103
  1053  053E  3400               	retlw	0
  1054  053F  3479               	retlw	121
  1055  0540  3400               	retlw	0
  1056  0541  3420               	retlw	32
  1057  0542  3400               	retlw	0
  1058  0543  3449               	retlw	73
  1059  0544  3400               	retlw	0
  1060  0545  346E               	retlw	110
  1061  0546  3400               	retlw	0
  1062  0547  3463               	retlw	99
  1063  0548  3400               	retlw	0
  1064  0549  342E               	retlw	46
  1065  054A  3400               	retlw	0
  1066  054B                     __end_of_sd001:	
  1067  054B                     _sd002:	
  1068  054B  3434               	retlw	52
  1069  054C  3403               	retlw	3
  1070  054D  3443               	retlw	67
  1071  054E  3400               	retlw	0
  1072  054F  3444               	retlw	68
  1073  0550  3400               	retlw	0
  1074  0551  3443               	retlw	67
  1075  0552  3400               	retlw	0
  1076  0553  3420               	retlw	32
  1077  0554  3400               	retlw	0
  1078  0555  3452               	retlw	82
  1079  0556  3400               	retlw	0
  1080  0557  3453               	retlw	83
  1081  0558  3400               	retlw	0
  1082  0559  342D               	retlw	45
  1083  055A  3400               	retlw	0
  1084  055B  3432               	retlw	50
  1085  055C  3400               	retlw	0
  1086  055D  3433               	retlw	51
  1087  055E  3400               	retlw	0
  1088  055F  3432               	retlw	50
  1089  0560  3400               	retlw	0
  1090  0561  3420               	retlw	32
  1091  0562  3400               	retlw	0
  1092  0563  3445               	retlw	69
  1093  0564  3400               	retlw	0
  1094  0565  346D               	retlw	109
  1095  0566  3400               	retlw	0
  1096  0567  3475               	retlw	117
  1097  0568  3400               	retlw	0
  1098  0569  346C               	retlw	108
  1099  056A  3400               	retlw	0
  1100  056B  3461               	retlw	97
  1101  056C  3400               	retlw	0
  1102  056D  3474               	retlw	116
  1103  056E  3400               	retlw	0
  1104  056F  3469               	retlw	105
  1105  0570  3400               	retlw	0
  1106  0571  346F               	retlw	111
  1107  0572  3400               	retlw	0
  1108  0573  346E               	retlw	110
  1109  0574  3400               	retlw	0
  1110  0575  3420               	retlw	32
  1111  0576  3400               	retlw	0
  1112  0577  3444               	retlw	68
  1113  0578  3400               	retlw	0
  1114  0579  3465               	retlw	101
  1115  057A  3400               	retlw	0
  1116  057B  346D               	retlw	109
  1117  057C  3400               	retlw	0
  1118  057D  346F               	retlw	111
  1119  057E  3400               	retlw	0
  1120  057F                     __end_of_sd002:	
  1121  057F                     _device_dsc:	
  1122  057F  3412               	retlw	18
  1123  0580  3401               	retlw	1
  1124  0581  3400               	retlw	0
  1125  0582  3402               	retlw	2
  1126  0583  3402               	retlw	2
  1127  0584  3400               	retlw	0
  1128  0585  3400               	retlw	0
  1129  0586  3408               	retlw	8
  1130  0587  34D8               	retlw	216
  1131  0588  3404               	retlw	4
  1132  0589  340A               	retlw	10
  1133  058A  3400               	retlw	0
  1134  058B  3400               	retlw	0
  1135  058C  3401               	retlw	1
  1136  058D  3401               	retlw	1
  1137  058E  3402               	retlw	2
  1138  058F  3400               	retlw	0
  1139  0590  3401               	retlw	1
  1140  0591                     __end_of_device_dsc:	
  1141  0591                     _sd000:	
  1142  0591  3404               	retlw	4
  1143  0592  3403               	retlw	3
  1144  0593  3409               	retlw	9
  1145  0594  3404               	retlw	4
  1146  0595                     __end_of_sd000:	
  1147  000B                     _INTCONbits	set	11
  1148  0011                     _PIR1bits	set	17
  1149  0012                     _PIR2bits	set	18
  1150  006F                     _RB7	set	111
  1151  0072                     _RC2	set	114
  1152  0073                     _RC3	set	115
  1153  0074                     _RC4	set	116
  1154  0075                     _RC5	set	117
  1155  0099                     _OSCCON	set	153
  1156  0091                     _PIE1bits	set	145
  1157  0092                     _PIE2bits	set	146
  1158  046C                     _TRISB4	set	1132
  1159  046E                     _TRISB6	set	1134
  1160  046F                     _TRISB7	set	1135
  1161  0472                     _TRISC2	set	1138
  1162  0473                     _TRISC3	set	1139
  1163  0474                     _TRISC4	set	1140
  1164  0475                     _TRISC5	set	1141
  1165  0476                     _TRISC6	set	1142
  1166  0477                     _TRISC7	set	1143
  1167  0C72                     _ANSC2	set	3186
  1168  0C73                     _ANSC3	set	3187
  1169  0211                     _SSP1BUF	set	529
  1170  0211                     _SSPBUF	set	529
  1171  0215                     _SSPCON1bits	set	533
  1172  0214                     _SSPSTATbits	set	532
  1173  039B                     _ACTCON	set	923
  1174  0E96                     _UADDR	set	3734
  1175  0E91                     _UCFG	set	3729
  1176  0E8E                     _UCON	set	3726
  1177  0E8E                     _UCONbits	set	3726
  1178  0E97                     _UEIE	set	3735
  1179  0E93                     _UEIR	set	3731
  1180  0E98                     _UEP0bits	set	3736
  1181  0E92                     _UIE	set	3730
  1182  0E92                     _UIEbits	set	3730
  1183  0E90                     _UIR	set	3728
  1184  0E90                     _UIRbits	set	3728
  1185  0E8F                     _USTAT	set	3727
  1186  0E98                     _UEP0	set	3736
  1187  0E99                     _UEP1	set	3737
  1188                           
  1189                           ; #config settings
  1190  0000                     
  1191                           	psect	cinit
  1192  0014                     start_initialization:	
  1193  0014                     __initialization:	
  1194                           
  1195                           ; Clear objects allocated to BANK1
  1196  0014  0021               	movlb	1	; select bank1
  1197  0015  01E0               	clrf	__pbssBANK1& (0+127)
  1198  0016  01E1               	clrf	(__pbssBANK1+1)& (0+127)
  1199  0017  01E2               	clrf	(__pbssBANK1+2)& (0+127)
  1200  0018  01E3               	clrf	(__pbssBANK1+3)& (0+127)
  1201  0019  01E4               	clrf	(__pbssBANK1+4)& (0+127)
  1202  001A  01E5               	clrf	(__pbssBANK1+5)& (0+127)
  1203                           
  1204                           ; Clear objects allocated to BANK3
  1205  001B  30A0               	movlw	low __pbssBANK3
  1206  001C  0084               	movwf	4
  1207  001D  3001               	movlw	high __pbssBANK3
  1208  001E  0085               	movwf	5
  1209  001F  304A               	movlw	74
  1210  0020  3188  200C  3180   	fcall	clear_ram0
  1211                           
  1212                           ; Clear objects allocated to BANK4
  1213  0023  3020               	movlw	low __pbssBANK4
  1214  0024  0084               	movwf	4
  1215  0025  3002               	movlw	high __pbssBANK4
  1216  0026  0085               	movwf	5
  1217  0027  3012               	movlw	18
  1218  0028  3188  200C  3180   	fcall	clear_ram0
  1219                           
  1220                           ; Clear objects allocated to BANK5
  1221  002B  30A0               	movlw	low __pbssBANK5
  1222  002C  0084               	movwf	4
  1223  002D  3002               	movlw	high __pbssBANK5
  1224  002E  0085               	movwf	5
  1225  002F  3040               	movlw	64
  1226  0030  3188  200C  3180   	fcall	clear_ram0
  1227                           
  1228                           ; Clear objects allocated to BANK6
  1229  0033  3020               	movlw	low __pbssBANK6
  1230  0034  0084               	movwf	4
  1231  0035  3003               	movlw	high __pbssBANK6
  1232  0036  0085               	movwf	5
  1233  0037  3040               	movlw	64
  1234  0038  3188  200C  3180   	fcall	clear_ram0
  1235                           
  1236                           ; Clear objects allocated to BANK7
  1237  003B  30A0               	movlw	low __pbssBANK7
  1238  003C  0084               	movwf	4
  1239  003D  3003               	movlw	high __pbssBANK7
  1240  003E  0085               	movwf	5
  1241  003F  3040               	movlw	64
  1242  0040  3188  200C         	fcall	clear_ram0
  1243  0042                     end_of_initialization:	
  1244                           ;End of C runtime variable initialization code
  1245                           
  1246  0042                     __end_of__initialization:	
  1247  0042  107E               	bcf	int$flags,0	;clear compiler interrupt flag (level 1)
  1248  0043  0020               	movlb	0
  1249  0044  3180  2846         	ljmp	_main	;jump to C main() function
  1250                           
  1251                           	psect	bssBANK1
  1252  00E0                     __pbssBANK1:	
  1253  00E0                     _pBDTEntryEP0OutNext:	
  1254  00E0                     	ds	2
  1255  00E2                     _USBDeviceState:	
  1256  00E2                     	ds	1
  1257  00E3                     _controlTransferState:	
  1258  00E3                     	ds	1
  1259  00E4                     _pBDTEntryEP0OutCurrent:	
  1260  00E4                     	ds	1
  1261  00E5                     _USTATcopy:	
  1262  00E5                     	ds	1
  1263                           
  1264                           	psect	bssBANK3
  1265  01A0                     __pbssBANK3:	
  1266  01A0                     _outPipes:	
  1267  01A0                     	ds	7
  1268  01A7                     _pBDTEntryIn:	
  1269  01A7                     	ds	6
  1270  01AD                     _pBDTEntryOut:	
  1271  01AD                     	ds	6
  1272  01B3                     _inPipes:	
  1273  01B3                     	ds	5
  1274  01B8                     _BaudRateGen:	
  1275  01B8                     	ds	4
  1276  01BC                     _USB1msTickCount:	
  1277  01BC                     	ds	4
  1278  01C0                     _ep_data_in:	
  1279  01C0                     	ds	3
  1280  01C3                     _ep_data_out:	
  1281  01C3                     	ds	3
  1282  01C6                     _CDCDataInHandle:	
  1283  01C6                     	ds	2
  1284  01C8                     _CDCDataOutHandle:	
  1285  01C8                     	ds	2
  1286  01CA                     _pCDCDst:	
  1287  01CA                     	ds	2
  1288  01CC                     _pCDCSrc:	
  1289  01CC                     	ds	2
  1290  01CE                     _BothEP0OutUOWNsSet:	
  1291  01CE                     	ds	1
  1292  01CF                     _RemoteWakeup:	
  1293  01CF                     	ds	1
  1294  01D0                     _USBBusIsSuspended:	
  1295  01D0                     	ds	1
  1296  01D1                     _USBDeferINDataStagePackets:	
  1297  01D1                     	ds	1
  1298  01D2                     _USBDeferOUTDataStagePackets:	
  1299  01D2                     	ds	1
  1300  01D3                     _USBDeferStatusStagePacket:	
  1301  01D3                     	ds	1
  1302  01D4                     _USBStatusStageEnabledFlag1:	
  1303  01D4                     	ds	1
  1304  01D5                     _USBStatusStageEnabledFlag2:	
  1305  01D5                     	ds	1
  1306  01D6                     _USBStatusStageTimeoutCounter:	
  1307  01D6                     	ds	1
  1308  01D7                     _USBTicksSinceSuspendEnd:	
  1309  01D7                     	ds	1
  1310  01D8                     _cdc_mem_type:	
  1311  01D8                     	ds	1
  1312  01D9                     _cdc_rx_len:	
  1313  01D9                     	ds	1
  1314  01DA                     _cdc_trf_state:	
  1315  01DA                     	ds	1
  1316  01DB                     _cdc_tx_len:	
  1317  01DB                     	ds	1
  1318  01DC                     _control_signal_bitmap:	
  1319  01DC                     	ds	1
  1320  01DD                     _endpoint_number:	
  1321  01DD                     	ds	1
  1322  01DE                     _pDst:	
  1323  01DE                     	ds	1
  1324  01DF                     _shortPacketStatus:	
  1325  01DF                     	ds	1
  1326  01E0                     _line_coding:	
  1327  01E0                     	ds	7
  1328  01E7                     _USBAlternateInterface:	
  1329  01E7                     	ds	2
  1330  01E9                     _USBActiveConfiguration:	
  1331  01E9                     	ds	1
  1332                           
  1333                           	psect	bssBANK4
  1334  0220                     __pbssBANK4:	
  1335  0220                     _cdc_notice:	
  1336  0220                     	ds	10
  1337  022A                     _dummy_encapsulated_cmd_response:	
  1338  022A                     	ds	8
  1339                           
  1340                           	psect	bssBANK5
  1341  02A0                     __pbssBANK5:	
  1342  02A0                     _stanje:	
  1343  02A0                     	ds	64
  1344                           
  1345                           	psect	bssBANK6
  1346  0320                     __pbssBANK6:	
  1347  0320                     _readBuffer:	
  1348  0320                     	ds	64
  1349                           
  1350                           	psect	bssBANK7
  1351  03A0                     __pbssBANK7:	
  1352  03A0                     _writeBuffer:	
  1353  03A0                     	ds	64
  1354                           
  1355                           	psect	clrtext
  1356  080C                     clear_ram0:	
  1357                           ;	Called with FSR0 containing the base address, and
  1358                           ;	WREG with the size to clear
  1359                           
  1360  080C  0064               	clrwdt	;clear the watchdog before getting into this loop
  1361  080D                     clrloop0:	
  1362  080D  0180               	clrf	0	;clear RAM location pointed to by FSR
  1363  080E  3101               	addfsr 0,1
  1364  080F  0B89               	decfsz	9,f	;Have we reached the end of clearing yet?
  1365  0810  280D               	goto	clrloop0	;have we reached the end yet?
  1366  0811  3400               	retlw	0	;all done for this memory range, return
  1367                           
  1368                           	psect	cstackBANK3
  1369  01EA                     __pcstackBANK3:	
  1370  01EA                     ??_main:	
  1371                           
  1372                           ; 1 bytes @ 0x0
  1373  01EA                     	ds	3
  1374  01ED                     main@numBytesRead:	
  1375                           
  1376                           ; 1 bytes @ 0x3
  1377  01ED                     	ds	1
  1378  01EE                     main@a:	
  1379                           
  1380                           ; 1 bytes @ 0x4
  1381  01EE                     	ds	1
  1382                           
  1383                           	psect	cstackBANK2
  1384  0160                     __pcstackBANK2:	
  1385  0160                     ??_SYSTEM_Initialize:	
  1386  0160                     ?_USBConfigureEndpoint:	
  1387                           ; 1 bytes @ 0x0
  1388                           
  1389  0160                     ??_USBDeviceInit:	
  1390                           ; 1 bytes @ 0x0
  1391                           
  1392  0160                     ??_USBDeviceAttach:	
  1393                           ; 1 bytes @ 0x0
  1394                           
  1395  0160                     ?_putUSBUSART:	
  1396                           ; 1 bytes @ 0x0
  1397                           
  1398  0160                     ?_USBTransferOnePacket:	
  1399                           ; 1 bytes @ 0x0
  1400                           
  1401  0160                     USBTransferOnePacket@dir:	
  1402                           ; 2 bytes @ 0x0
  1403                           
  1404  0160                     USBConfigureEndpoint@direction:	
  1405                           ; 1 bytes @ 0x0
  1406                           
  1407  0160                     putUSBUSART@length:	
  1408                           ; 1 bytes @ 0x0
  1409                           
  1410  0160                     SYSTEM_Initialize@state:	
  1411                           ; 1 bytes @ 0x0
  1412                           
  1413                           
  1414                           ; 1 bytes @ 0x0
  1415  0160                     	ds	1
  1416  0161                     ??_USBConfigureEndpoint:	
  1417  0161                     ??_putUSBUSART:	
  1418                           ; 1 bytes @ 0x1
  1419                           
  1420  0161                     USBDeviceInit@p:	
  1421                           ; 1 bytes @ 0x1
  1422                           
  1423  0161                     USBTransferOnePacket@data:	
  1424                           ; 2 bytes @ 0x1
  1425                           
  1426                           
  1427                           ; 2 bytes @ 0x1
  1428  0161                     	ds	1
  1429  0162                     putUSBUSART@data:	
  1430                           
  1431                           ; 1 bytes @ 0x2
  1432  0162                     	ds	1
  1433  0163                     USBDeviceInit@i_821:	
  1434  0163                     USBTransferOnePacket@len:	
  1435                           ; 1 bytes @ 0x3
  1436                           
  1437                           
  1438                           ; 1 bytes @ 0x3
  1439  0163                     	ds	1
  1440  0164                     ??_USBTransferOnePacket:	
  1441  0164                     USBDeviceInit@i:	
  1442                           ; 1 bytes @ 0x4
  1443                           
  1444                           
  1445                           ; 1 bytes @ 0x4
  1446  0164                     	ds	1
  1447  0165                     USBConfigureEndpoint@EPNum:	
  1448                           
  1449                           ; 1 bytes @ 0x5
  1450  0165                     	ds	1
  1451  0166                     USBConfigureEndpoint@handle:	
  1452                           
  1453                           ; 1 bytes @ 0x6
  1454  0166                     	ds	1
  1455  0167                     ?_USBEnableEndpoint:	
  1456  0167                     USBEnableEndpoint@options:	
  1457                           ; 1 bytes @ 0x7
  1458                           
  1459                           
  1460                           ; 1 bytes @ 0x7
  1461  0167                     	ds	1
  1462  0168                     ??_USBEnableEndpoint:	
  1463  0168                     USBTransferOnePacket@ep:	
  1464                           ; 1 bytes @ 0x8
  1465                           
  1466                           
  1467                           ; 1 bytes @ 0x8
  1468  0168                     	ds	1
  1469  0169                     USBTransferOnePacket@handle:	
  1470                           
  1471                           ; 2 bytes @ 0x9
  1472  0169                     	ds	1
  1473  016A                     USBEnableEndpoint@p:	
  1474                           
  1475                           ; 2 bytes @ 0xA
  1476  016A                     	ds	1
  1477  016B                     ?_getsUSBUSART:	
  1478  016B                     ??_CDCTxService:	
  1479                           ; 1 bytes @ 0xB
  1480                           
  1481  016B                     getsUSBUSART@len:	
  1482                           ; 1 bytes @ 0xB
  1483                           
  1484                           
  1485                           ; 1 bytes @ 0xB
  1486  016B                     	ds	1
  1487  016C                     ??_getsUSBUSART:	
  1488  016C                     USBEnableEndpoint@ep:	
  1489                           ; 1 bytes @ 0xC
  1490                           
  1491  016C                     CDCTxService@i:	
  1492                           ; 1 bytes @ 0xC
  1493                           
  1494                           
  1495                           ; 1 bytes @ 0xC
  1496  016C                     	ds	1
  1497  016D                     ??_CDCInitEP:	
  1498  016D                     CDCTxService@byte_to_send:	
  1499                           ; 1 bytes @ 0xD
  1500                           
  1501                           
  1502                           ; 1 bytes @ 0xD
  1503  016D                     	ds	1
  1504  016E                     getsUSBUSART@buffer:	
  1505                           
  1506                           ; 1 bytes @ 0xE
  1507  016E                     	ds	1
  1508                           
  1509                           	psect	cstackBANK1
  1510  00E6                     __pcstackBANK1:	
  1511  00E6                     ??_USBCtrlEPService:	
  1512                           
  1513                           ; 1 bytes @ 0x0
  1514  00E6                     	ds	3
  1515  00E9                     ??_USBDeviceTasks:	
  1516                           
  1517                           ; 1 bytes @ 0x3
  1518  00E9                     	ds	2
  1519  00EB                     ??_SYS_InterruptHigh:	
  1520                           
  1521                           ; 1 bytes @ 0x5
  1522  00EB                     	ds	1
  1523                           
  1524                           	psect	cstackCOMMON
  1525  0070                     __pcstackCOMMON:	
  1526  0070                     ?_SYSTEM_Initialize:	
  1527  0070                     ?_CDCInitEP:	
  1528                           ; 1 bytes @ 0x0
  1529                           
  1530  0070                     ?_USBCheckCDCRequest:	
  1531                           ; 1 bytes @ 0x0
  1532                           
  1533  0070                     ??_USBCheckCDCRequest:	
  1534                           ; 1 bytes @ 0x0
  1535                           
  1536  0070                     ?_USBWakeFromSuspend:	
  1537                           ; 1 bytes @ 0x0
  1538                           
  1539  0070                     ?_USBSuspend:	
  1540                           ; 1 bytes @ 0x0
  1541                           
  1542  0070                     ?_USBIncrement1msInternalTimers:	
  1543                           ; 1 bytes @ 0x0
  1544                           
  1545  0070                     ??_USBIncrement1msInternalTimers:	
  1546                           ; 1 bytes @ 0x0
  1547                           
  1548  0070                     ?_USBCtrlEPAllowStatusStage:	
  1549                           ; 1 bytes @ 0x0
  1550                           
  1551  0070                     ??_USBCtrlEPAllowStatusStage:	
  1552                           ; 1 bytes @ 0x0
  1553                           
  1554  0070                     ?_USBStallHandler:	
  1555                           ; 1 bytes @ 0x0
  1556                           
  1557  0070                     ??_USBStallHandler:	
  1558                           ; 1 bytes @ 0x0
  1559                           
  1560  0070                     ?_USBCtrlEPService:	
  1561                           ; 1 bytes @ 0x0
  1562                           
  1563  0070                     ?_USBCtrlTrfTxService:	
  1564                           ; 1 bytes @ 0x0
  1565                           
  1566  0070                     ??_USBCtrlTrfTxService:	
  1567                           ; 1 bytes @ 0x0
  1568                           
  1569  0070                     ?_USBCtrlTrfSetupHandler:	
  1570                           ; 1 bytes @ 0x0
  1571                           
  1572  0070                     ?_USBCtrlTrfOutHandler:	
  1573                           ; 1 bytes @ 0x0
  1574                           
  1575  0070                     ?_USBCtrlTrfInHandler:	
  1576                           ; 1 bytes @ 0x0
  1577                           
  1578  0070                     ?_USBCheckStdRequest:	
  1579                           ; 1 bytes @ 0x0
  1580                           
  1581  0070                     ?_USBStdFeatureReqHandler:	
  1582                           ; 1 bytes @ 0x0
  1583                           
  1584  0070                     ?_USBDeviceInit:	
  1585                           ; 1 bytes @ 0x0
  1586                           
  1587  0070                     ?_USBDeviceTasks:	
  1588                           ; 1 bytes @ 0x0
  1589                           
  1590  0070                     ?_USBDeviceAttach:	
  1591                           ; 1 bytes @ 0x0
  1592                           
  1593  0070                     ?_USBCtrlEPAllowDataStage:	
  1594                           ; 1 bytes @ 0x0
  1595                           
  1596  0070                     ?_USBCtrlEPServiceComplete:	
  1597                           ; 1 bytes @ 0x0
  1598                           
  1599  0070                     ?_USBCtrlTrfRxService:	
  1600                           ; 1 bytes @ 0x0
  1601                           
  1602  0070                     ?_USBStdSetCfgHandler:	
  1603                           ; 1 bytes @ 0x0
  1604                           
  1605  0070                     ?_USBStdGetDscHandler:	
  1606                           ; 1 bytes @ 0x0
  1607                           
  1608  0070                     ??_USBStdGetDscHandler:	
  1609                           ; 1 bytes @ 0x0
  1610                           
  1611  0070                     ?_USBStdGetStatusHandler:	
  1612                           ; 1 bytes @ 0x0
  1613                           
  1614  0070                     ??_USBStdGetStatusHandler:	
  1615                           ; 1 bytes @ 0x0
  1616                           
  1617  0070                     ?_CDCTxService:	
  1618                           ; 1 bytes @ 0x0
  1619                           
  1620  0070                     ?_SYS_InterruptHigh:	
  1621                           ; 1 bytes @ 0x0
  1622                           
  1623  0070                     ?_main:	
  1624                           ; 1 bytes @ 0x0
  1625                           
  1626  0070                     ?i1_USBDeviceInit:	
  1627                           ; 1 bytes @ 0x0
  1628                           
  1629  0070                     ??i1_USBDeviceInit:	
  1630                           ; 1 bytes @ 0x0
  1631                           
  1632  0070                     ?i1_USBConfigureEndpoint:	
  1633                           ; 1 bytes @ 0x0
  1634                           
  1635  0070                     ?i1_CDCInitEP:	
  1636                           ; 1 bytes @ 0x0
  1637                           
  1638  0070                     ?i1_SYSTEM_Initialize:	
  1639                           ; 1 bytes @ 0x0
  1640                           
  1641  0070                     ??i1_SYSTEM_Initialize:	
  1642                           ; 1 bytes @ 0x0
  1643                           
  1644  0070                     ?_memset:	
  1645                           ; 1 bytes @ 0x0
  1646                           
  1647  0070                     ?i1_USBTransferOnePacket:	
  1648                           ; 2 bytes @ 0x0
  1649                           
  1650  0070                     i1USBTransferOnePacket@dir:	
  1651                           ; 2 bytes @ 0x0
  1652                           
  1653  0070                     i1USBConfigureEndpoint@direction:	
  1654                           ; 1 bytes @ 0x0
  1655                           
  1656  0070                     i1SYSTEM_Initialize@state:	
  1657                           ; 1 bytes @ 0x0
  1658                           
  1659  0070                     memset@p1:	
  1660                           ; 1 bytes @ 0x0
  1661                           
  1662                           
  1663                           ; 2 bytes @ 0x0
  1664  0070                     	ds	1
  1665  0071                     ??i1_USBConfigureEndpoint:	
  1666  0071                     USBStdGetStatusHandler@p:	
  1667                           ; 1 bytes @ 0x1
  1668                           
  1669  0071                     i1USBDeviceInit@p:	
  1670                           ; 2 bytes @ 0x1
  1671                           
  1672  0071                     i1USBTransferOnePacket@data:	
  1673                           ; 2 bytes @ 0x1
  1674                           
  1675                           
  1676                           ; 2 bytes @ 0x1
  1677  0071                     	ds	1
  1678  0072                     ??_USBCtrlTrfRxService:	
  1679  0072                     USBCtrlTrfTxService@byteToSend:	
  1680                           ; 1 bytes @ 0x2
  1681                           
  1682  0072                     memset@c:	
  1683                           ; 1 bytes @ 0x2
  1684                           
  1685                           
  1686                           ; 2 bytes @ 0x2
  1687  0072                     	ds	1
  1688  0073                     ??_USBCtrlTrfInHandler:	
  1689  0073                     ??_USBCtrlEPAllowDataStage:	
  1690                           ; 1 bytes @ 0x3
  1691                           
  1692  0073                     i1USBDeviceInit@i_821:	
  1693                           ; 1 bytes @ 0x3
  1694                           
  1695  0073                     i1USBTransferOnePacket@len:	
  1696                           ; 1 bytes @ 0x3
  1697                           
  1698                           
  1699                           ; 1 bytes @ 0x3
  1700  0073                     	ds	1
  1701  0074                     ??i1_USBTransferOnePacket:	
  1702  0074                     USBCtrlTrfRxService@i:	
  1703                           ; 1 bytes @ 0x4
  1704                           
  1705  0074                     i1USBDeviceInit@i:	
  1706                           ; 1 bytes @ 0x4
  1707                           
  1708  0074                     memset@n:	
  1709                           ; 1 bytes @ 0x4
  1710                           
  1711                           
  1712                           ; 2 bytes @ 0x4
  1713  0074                     	ds	1
  1714  0075                     ??_USBCtrlEPServiceComplete:	
  1715  0075                     USBCtrlTrfRxService@byteToRead:	
  1716                           ; 1 bytes @ 0x5
  1717                           
  1718  0075                     USBCtrlTrfInHandler@lastDTS:	
  1719                           ; 1 bytes @ 0x5
  1720                           
  1721  0075                     i1USBConfigureEndpoint@EPNum:	
  1722                           ; 1 bytes @ 0x5
  1723                           
  1724                           
  1725                           ; 1 bytes @ 0x5
  1726  0075                     	ds	1
  1727  0076                     ??_memset:	
  1728  0076                     ??_USBCtrlTrfOutHandler:	
  1729                           ; 1 bytes @ 0x6
  1730                           
  1731  0076                     i1USBConfigureEndpoint@handle:	
  1732                           ; 1 bytes @ 0x6
  1733                           
  1734  0076                     memset@p:	
  1735                           ; 1 bytes @ 0x6
  1736                           
  1737                           
  1738                           ; 2 bytes @ 0x6
  1739  0076                     	ds	1
  1740  0077                     ?i1_USBEnableEndpoint:	
  1741  0077                     i1USBEnableEndpoint@options:	
  1742                           ; 1 bytes @ 0x7
  1743                           
  1744                           
  1745                           ; 1 bytes @ 0x7
  1746  0077                     	ds	1
  1747  0078                     ??i1_USBEnableEndpoint:	
  1748  0078                     i1USBTransferOnePacket@ep:	
  1749                           ; 1 bytes @ 0x8
  1750                           
  1751                           
  1752                           ; 1 bytes @ 0x8
  1753  0078                     	ds	1
  1754  0079                     i1USBTransferOnePacket@handle:	
  1755                           
  1756                           ; 2 bytes @ 0x9
  1757  0079                     	ds	1
  1758  007A                     i1USBEnableEndpoint@p:	
  1759                           
  1760                           ; 2 bytes @ 0xA
  1761  007A                     	ds	2
  1762  007C                     i1USBEnableEndpoint@ep:	
  1763                           
  1764                           ; 1 bytes @ 0xC
  1765  007C                     	ds	1
  1766  007D                     ??i1_CDCInitEP:	
  1767                           
  1768                           ; 1 bytes @ 0xD
  1769  007D                     	ds	1
  1770  007E                     ??_USER_USB_CALLBACK_EVENT_HANDLER:	
  1771                           
  1772                           	psect	cstackBANK0
  1773  0060                     __pcstackBANK0:	
  1774                           ; 1 bytes @ 0xE
  1775                           
  1776  0060                     ?_USER_USB_CALLBACK_EVENT_HANDLER:	
  1777  0060                     USER_USB_CALLBACK_EVENT_HANDLER@event:	
  1778                           ; 1 bytes @ 0x0
  1779                           
  1780                           
  1781                           ; 2 bytes @ 0x0
  1782  0060                     	ds	2
  1783  0062                     USER_USB_CALLBACK_EVENT_HANDLER@pdata:	
  1784                           
  1785                           ; 2 bytes @ 0x2
  1786  0062                     	ds	2
  1787  0064                     USER_USB_CALLBACK_EVENT_HANDLER@size:	
  1788                           
  1789                           ; 2 bytes @ 0x4
  1790  0064                     	ds	2
  1791  0066                     ??_USBWakeFromSuspend:	
  1792  0066                     ??_USBSuspend:	
  1793                           ; 1 bytes @ 0x6
  1794                           
  1795  0066                     ??_USBStdFeatureReqHandler:	
  1796                           ; 1 bytes @ 0x6
  1797                           
  1798  0066                     ??_USBStdSetCfgHandler:	
  1799                           ; 1 bytes @ 0x6
  1800                           
  1801                           
  1802                           ; 1 bytes @ 0x6
  1803  0066                     	ds	1
  1804  0067                     USBStdSetCfgHandler@p:	
  1805                           
  1806                           ; 2 bytes @ 0x7
  1807  0067                     	ds	1
  1808  0068                     USBStdFeatureReqHandler@pUEP:	
  1809                           
  1810                           ; 2 bytes @ 0x8
  1811  0068                     	ds	1
  1812  0069                     USBStdSetCfgHandler@i_1174:	
  1813                           
  1814                           ; 1 bytes @ 0x9
  1815  0069                     	ds	1
  1816  006A                     USBStdSetCfgHandler@i:	
  1817  006A                     USBStdFeatureReqHandler@current_ep_data:	
  1818                           ; 1 bytes @ 0xA
  1819                           
  1820                           
  1821                           ; 1 bytes @ 0xA
  1822  006A                     	ds	1
  1823  006B                     USBStdFeatureReqHandler@p:	
  1824                           
  1825                           ; 2 bytes @ 0xB
  1826  006B                     	ds	2
  1827  006D                     ??_USBCheckStdRequest:	
  1828                           
  1829                           ; 1 bytes @ 0xD
  1830  006D                     	ds	1
  1831  006E                     ??_USBCtrlTrfSetupHandler:	
  1832                           
  1833                           ; 1 bytes @ 0xE
  1834  006E                     	ds	1
  1835  006F                     USBDeviceTasks@i:	
  1836                           
  1837                           ; 1 bytes @ 0xF
  1838  006F                     	ds	1
  1839                           
  1840                           	psect	maintext
  1841  0046                     __pmaintext:	
  1842 ;;
  1843 ;;Main: autosize = 0, tempsize = 3, incstack = 0, save=0
  1844 ;;
  1845 ;; *************** function _main *****************
  1846 ;; Defined at:
  1847 ;;		line 18 in file "../src/main.c"
  1848 ;; Parameters:    Size  Location     Type
  1849 ;;		None
  1850 ;; Auto vars:     Size  Location     Type
  1851 ;;  a               1    4[BANK3 ] unsigned char 
  1852 ;;  numBytesRead    1    3[BANK3 ] unsigned char 
  1853 ;; Return value:  Size  Location     Type
  1854 ;;                  1    wreg      void 
  1855 ;; Registers used:
  1856 ;;		wreg, fsr0l, fsr0h, fsr1l, fsr1h, status,2, status,0, pclath, cstack
  1857 ;; Tracked objects:
  1858 ;;		On entry : B1F/0
  1859 ;;		On exit  : 0/0
  1860 ;;		Unchanged: 0/0
  1861 ;; Data sizes:     COMMON   BANK0   BANK1   BANK2   BANK3   BANK4   BANK5   BANK6   BANK7   BANK8   BANK9  BANK10  BANK1
      +1  BANK12
  1862 ;;      Params:         0       0       0       0       0       0       0       0       0       0       0       0       
      +0       0
  1863 ;;      Locals:         0       0       0       0       2       0       0       0       0       0       0       0       
      +0       0
  1864 ;;      Temps:          0       0       0       0       3       0       0       0       0       0       0       0       
      +0       0
  1865 ;;      Totals:         0       0       0       0       5       0       0       0       0       0       0       0       
      +0       0
  1866 ;;Total ram usage:        5 bytes
  1867 ;; Hardware stack levels required when called:   13
  1868 ;; This function calls:
  1869 ;;		_CDCInitEP
  1870 ;;		_CDCTxService
  1871 ;;		_SYSTEM_Initialize
  1872 ;;		_USBDeviceAttach
  1873 ;;		_USBDeviceInit
  1874 ;;		_getsUSBUSART
  1875 ;;		_putUSBUSART
  1876 ;; This function is called by:
  1877 ;;		Startup code after reset
  1878 ;; This function uses a non-reentrant model
  1879 ;;
  1880                           
  1881                           
  1882                           ;psect for function _main
  1883  0046                     _main:	
  1884                           
  1885                           ;main.c: 63: SYSTEM_Initialize(SYSTEM_STATE_USB_START);
  1886                           
  1887                           ;incstack = 0
  1888                           ; Regs used in _main: [wreg-fsr1h+status,2+status,0+pclath+cstack]
  1889  0046  3000               	movlw	0
  1890  0047  3197  2762  3180   	fcall	_SYSTEM_Initialize
  1891                           
  1892                           ;main.c: 64: USBDeviceInit();
  1893  004A  3185  2595  3180   	fcall	_USBDeviceInit
  1894                           
  1895                           ;main.c: 65: USBDeviceAttach();
  1896  004D  3197  27C4  3180   	fcall	_USBDeviceAttach
  1897                           
  1898                           ;main.c: 66: CDCInitEP();
  1899  0050  3189  2140  3180   	fcall	_CDCInitEP
  1900                           
  1901                           ;main.c: 67: {line_coding.dwDTERate=1200;};
  1902  0053  3000               	movlw	0
  1903  0054  0023               	movlb	3	; select bank3
  1904  0055  00E3               	movwf	(_line_coding+3)^(0+384)
  1905  0056  3000               	movlw	0
  1906  0057  00E2               	movwf	(_line_coding+2)^(0+384)
  1907  0058  3004               	movlw	4
  1908  0059  00E1               	movwf	(_line_coding+1)^(0+384)
  1909  005A  30B0               	movlw	176
  1910  005B  00E0               	movwf	_line_coding^(0+384)
  1911                           
  1912                           ;main.c: 72: ANSC2 = 0;
  1913  005C  110E               	bcf	14,2	;volatile
  1914                           
  1915                           ;main.c: 73: ANSC3 = 0;
  1916  005D  118E               	bcf	14,3	;volatile
  1917                           
  1918                           ;main.c: 74: TRISB7 = 0;
  1919  005E  0021               	movlb	1	; select bank1
  1920  005F  138D               	bcf	13,7	;volatile
  1921                           
  1922                           ;main.c: 75: TRISC2 = 0;
  1923  0060  110E               	bcf	14,2	;volatile
  1924                           
  1925                           ;main.c: 76: TRISC3 = 0;
  1926  0061  118E               	bcf	14,3	;volatile
  1927                           
  1928                           ;main.c: 77: TRISC4 = 0;
  1929  0062  120E               	bcf	14,4	;volatile
  1930                           
  1931                           ;main.c: 78: TRISC5 = 0;
  1932  0063  128E               	bcf	14,5	;volatile
  1933                           
  1934                           ;main.c: 80: RC2 = 0;
  1935  0064  0020               	movlb	0	; select bank0
  1936  0065  110E               	bcf	14,2	;volatile
  1937                           
  1938                           ;main.c: 81: RC3 = 0;
  1939  0066  118E               	bcf	14,3	;volatile
  1940                           
  1941                           ;main.c: 82: RC4 = 0;
  1942  0067  120E               	bcf	14,4	;volatile
  1943                           
  1944                           ;main.c: 83: RC5 = 0;
  1945  0068  128E               	bcf	14,5	;volatile
  1946                           
  1947                           ;main.c: 84: RB7 = 1;
  1948  0069  178D               	bsf	13,7	;volatile
  1949  006A                     l4440:	
  1950                           ;main.c: 85: while(1){
  1951                           
  1952                           
  1953                           ;main.c: 87: if( (cdc_trf_state == 0) == 1){
  1954  006A  0023               	movlb	3	; select bank3
  1955  006B  085A               	movf	_cdc_trf_state^(0+384),w
  1956  006C  1D03               	btfss	3,2
  1957  006D  29EB               	goto	l4508
  1958                           
  1959                           ;main.c: 88: uint8_t numBytesRead, a;
  1960                           ;main.c: 90: numBytesRead = getsUSBUSART(readBuffer, sizeof(readBuffer));
  1961  006E  3040               	movlw	64
  1962  006F  00EA               	movwf	??_main^(0+384)
  1963  0070  086A               	movf	??_main^(0+384),w
  1964  0071  0022               	movlb	2	; select bank2
  1965  0072  00EB               	movwf	getsUSBUSART@len^(0+256)
  1966  0073  3020               	movlw	(low (_readBuffer| (0+768)))& (0+255)
  1967  0074  318A  22FE  3180   	fcall	_getsUSBUSART
  1968  0077  0023               	movlb	3	; select bank3
  1969  0078  00EB               	movwf	(??_main+1)^(0+384)
  1970  0079  086B               	movf	(??_main+1)^(0+384),w
  1971  007A  00ED               	movwf	main@numBytesRead^(0+384)
  1972                           
  1973                           ;main.c: 91: if(numBytesRead > 0){
  1974  007B  086D               	movf	main@numBytesRead^(0+384),w
  1975  007C  1903               	btfsc	3,2
  1976  007D  29EB               	goto	l4508
  1977                           
  1978                           ;main.c: 94: a=readBuffer[0];
  1979  007E  0026               	movlb	6	; select bank6
  1980  007F  0820               	movf	_readBuffer^(0+768),w
  1981  0080  0023               	movlb	3	; select bank3
  1982  0081  00EA               	movwf	??_main^(0+384)
  1983  0082  086A               	movf	??_main^(0+384),w
  1984  0083  00EE               	movwf	main@a^(0+384)
  1985                           
  1986                           ;main.c: 95: switch(a){
  1987  0084  29B4               	goto	l4500
  1988  0085                     l660:	
  1989                           ;main.c: 97: case 10:
  1990                           
  1991                           
  1992                           ;main.c: 98: RC2=0;
  1993  0085  0020               	movlb	0	; select bank0
  1994  0086  110E               	bcf	14,2	;volatile
  1995                           
  1996                           ;main.c: 99: RB7 = 0;
  1997  0087  138D               	bcf	13,7	;volatile
  1998                           
  1999                           ;main.c: 100: _delay((unsigned long)((1000)*(48000000/4000.0)));
  2000  0088  303D               	movlw	61
  2001  0089  0023               	movlb	3	; select bank3
  2002  008A  00EC               	movwf	(??_main^(0+384)+2)
  2003  008B  30E1               	movlw	225
  2004  008C  00EB               	movwf	(??_main^(0+384)+1)
  2005  008D  307A               	movlw	122
  2006  008E  00EA               	movwf	??_main^(0+384)
  2007  008F                     u3997:	
  2008  008F  0BEA               	decfsz	??_main^(0+384),f
  2009  0090  288F               	goto	u3997
  2010  0091  0BEB               	decfsz	(??_main^(0+384)+1),f
  2011  0092  288F               	goto	u3997
  2012  0093  0BEC               	decfsz	(??_main^(0+384)+2),f
  2013  0094  288F               	goto	u3997
  2014  0095  3200               	nop2
  2015  0096  29B1               	goto	l4496
  2016  0097                     l662:	
  2017                           ;main.c: 103: case 11:
  2018                           
  2019                           ;main.c: 102: break;
  2020                           
  2021                           ;main.c: 101: RB7=1;
  2022                           
  2023                           
  2024                           ;main.c: 104: RC2=1;
  2025  0097  0020               	movlb	0	; select bank0
  2026  0098  150E               	bsf	14,2	;volatile
  2027                           
  2028                           ;main.c: 105: RB7 = 0;
  2029  0099  138D               	bcf	13,7	;volatile
  2030                           
  2031                           ;main.c: 106: _delay((unsigned long)((333)*(48000000/4000.0)));
  2032  009A  3015               	movlw	21
  2033  009B  0023               	movlb	3	; select bank3
  2034  009C  00EC               	movwf	(??_main^(0+384)+2)
  2035  009D  3046               	movlw	70
  2036  009E  00EB               	movwf	(??_main^(0+384)+1)
  2037  009F  309F               	movlw	159
  2038  00A0  00EA               	movwf	??_main^(0+384)
  2039  00A1                     u4007:	
  2040  00A1  0BEA               	decfsz	??_main^(0+384),f
  2041  00A2  28A1               	goto	u4007
  2042  00A3  0BEB               	decfsz	(??_main^(0+384)+1),f
  2043  00A4  28A1               	goto	u4007
  2044  00A5  0BEC               	decfsz	(??_main^(0+384)+2),f
  2045  00A6  28A1               	goto	u4007
  2046  00A7  0000               	nop
  2047                           
  2048                           ;main.c: 107: RB7=1;
  2049  00A8  0020               	movlb	0	; select bank0
  2050  00A9  178D               	bsf	13,7	;volatile
  2051                           
  2052                           ;main.c: 108: _delay((unsigned long)((333)*(48000000/4000.0)));
  2053  00AA  3015               	movlw	21
  2054  00AB  0023               	movlb	3	; select bank3
  2055  00AC  00EC               	movwf	(??_main^(0+384)+2)
  2056  00AD  3046               	movlw	70
  2057  00AE  00EB               	movwf	(??_main^(0+384)+1)
  2058  00AF  309F               	movlw	159
  2059  00B0  00EA               	movwf	??_main^(0+384)
  2060  00B1                     u4017:	
  2061  00B1  0BEA               	decfsz	??_main^(0+384),f
  2062  00B2  28B1               	goto	u4017
  2063  00B3  0BEB               	decfsz	(??_main^(0+384)+1),f
  2064  00B4  28B1               	goto	u4017
  2065  00B5  0BEC               	decfsz	(??_main^(0+384)+2),f
  2066  00B6  28B1               	goto	u4017
  2067  00B7  0000               	nop
  2068                           
  2069                           ;main.c: 109: RB7 = 0;
  2070  00B8  0020               	movlb	0	; select bank0
  2071  00B9  138D               	bcf	13,7	;volatile
  2072                           
  2073                           ;main.c: 110: _delay((unsigned long)((333)*(48000000/4000.0)));
  2074  00BA  3015               	movlw	21
  2075  00BB  0023               	movlb	3	; select bank3
  2076  00BC  00EC               	movwf	(??_main^(0+384)+2)
  2077  00BD  3046               	movlw	70
  2078  00BE  00EB               	movwf	(??_main^(0+384)+1)
  2079  00BF  309F               	movlw	159
  2080  00C0  00EA               	movwf	??_main^(0+384)
  2081  00C1                     u4027:	
  2082  00C1  0BEA               	decfsz	??_main^(0+384),f
  2083  00C2  28C1               	goto	u4027
  2084  00C3  0BEB               	decfsz	(??_main^(0+384)+1),f
  2085  00C4  28C1               	goto	u4027
  2086  00C5  0BEC               	decfsz	(??_main^(0+384)+2),f
  2087  00C6  28C1               	goto	u4027
  2088  00C7  0000               	nop
  2089  00C8  29B1               	goto	l4496
  2090  00C9                     l663:	
  2091                           ;main.c: 113: case 20:
  2092                           
  2093                           ;main.c: 112: break;
  2094                           
  2095                           ;main.c: 111: RB7=1;
  2096                           
  2097                           
  2098                           ;main.c: 114: RC3=0;
  2099  00C9  0020               	movlb	0	; select bank0
  2100  00CA  118E               	bcf	14,3	;volatile
  2101                           
  2102                           ;main.c: 115: RB7 = 0;
  2103  00CB  138D               	bcf	13,7	;volatile
  2104                           
  2105                           ;main.c: 116: _delay((unsigned long)((1000)*(48000000/4000.0)));
  2106  00CC  303D               	movlw	61
  2107  00CD  0023               	movlb	3	; select bank3
  2108  00CE  00EC               	movwf	(??_main^(0+384)+2)
  2109  00CF  30E1               	movlw	225
  2110  00D0  00EB               	movwf	(??_main^(0+384)+1)
  2111  00D1  307A               	movlw	122
  2112  00D2  00EA               	movwf	??_main^(0+384)
  2113  00D3                     u4037:	
  2114  00D3  0BEA               	decfsz	??_main^(0+384),f
  2115  00D4  28D3               	goto	u4037
  2116  00D5  0BEB               	decfsz	(??_main^(0+384)+1),f
  2117  00D6  28D3               	goto	u4037
  2118  00D7  0BEC               	decfsz	(??_main^(0+384)+2),f
  2119  00D8  28D3               	goto	u4037
  2120  00D9  3200               	nop2
  2121  00DA  29B1               	goto	l4496
  2122  00DB                     l664:	
  2123                           ;main.c: 119: case 21:
  2124                           
  2125                           ;main.c: 118: break;
  2126                           
  2127                           ;main.c: 117: RB7=1;
  2128                           
  2129                           
  2130                           ;main.c: 120: RC3=1;
  2131  00DB  0020               	movlb	0	; select bank0
  2132  00DC  158E               	bsf	14,3	;volatile
  2133                           
  2134                           ;main.c: 121: RB7 = 0;
  2135  00DD  138D               	bcf	13,7	;volatile
  2136                           
  2137                           ;main.c: 122: _delay((unsigned long)((333)*(48000000/4000.0)));
  2138  00DE  3015               	movlw	21
  2139  00DF  0023               	movlb	3	; select bank3
  2140  00E0  00EC               	movwf	(??_main^(0+384)+2)
  2141  00E1  3046               	movlw	70
  2142  00E2  00EB               	movwf	(??_main^(0+384)+1)
  2143  00E3  309F               	movlw	159
  2144  00E4  00EA               	movwf	??_main^(0+384)
  2145  00E5                     u4047:	
  2146  00E5  0BEA               	decfsz	??_main^(0+384),f
  2147  00E6  28E5               	goto	u4047
  2148  00E7  0BEB               	decfsz	(??_main^(0+384)+1),f
  2149  00E8  28E5               	goto	u4047
  2150  00E9  0BEC               	decfsz	(??_main^(0+384)+2),f
  2151  00EA  28E5               	goto	u4047
  2152  00EB  0000               	nop
  2153                           
  2154                           ;main.c: 123: RB7=1;
  2155  00EC  0020               	movlb	0	; select bank0
  2156  00ED  178D               	bsf	13,7	;volatile
  2157                           
  2158                           ;main.c: 124: _delay((unsigned long)((333)*(48000000/4000.0)));
  2159  00EE  3015               	movlw	21
  2160  00EF  0023               	movlb	3	; select bank3
  2161  00F0  00EC               	movwf	(??_main^(0+384)+2)
  2162  00F1  3046               	movlw	70
  2163  00F2  00EB               	movwf	(??_main^(0+384)+1)
  2164  00F3  309F               	movlw	159
  2165  00F4  00EA               	movwf	??_main^(0+384)
  2166  00F5                     u4057:	
  2167  00F5  0BEA               	decfsz	??_main^(0+384),f
  2168  00F6  28F5               	goto	u4057
  2169  00F7  0BEB               	decfsz	(??_main^(0+384)+1),f
  2170  00F8  28F5               	goto	u4057
  2171  00F9  0BEC               	decfsz	(??_main^(0+384)+2),f
  2172  00FA  28F5               	goto	u4057
  2173  00FB  0000               	nop
  2174                           
  2175                           ;main.c: 125: RB7 = 0;
  2176  00FC  0020               	movlb	0	; select bank0
  2177  00FD  138D               	bcf	13,7	;volatile
  2178                           
  2179                           ;main.c: 126: _delay((unsigned long)((333)*(48000000/4000.0)));
  2180  00FE  3015               	movlw	21
  2181  00FF  0023               	movlb	3	; select bank3
  2182  0100  00EC               	movwf	(??_main^(0+384)+2)
  2183  0101  3046               	movlw	70
  2184  0102  00EB               	movwf	(??_main^(0+384)+1)
  2185  0103  309F               	movlw	159
  2186  0104  00EA               	movwf	??_main^(0+384)
  2187  0105                     u4067:	
  2188  0105  0BEA               	decfsz	??_main^(0+384),f
  2189  0106  2905               	goto	u4067
  2190  0107  0BEB               	decfsz	(??_main^(0+384)+1),f
  2191  0108  2905               	goto	u4067
  2192  0109  0BEC               	decfsz	(??_main^(0+384)+2),f
  2193  010A  2905               	goto	u4067
  2194  010B  0000               	nop
  2195  010C  29B1               	goto	l4496
  2196  010D                     l665:	
  2197                           ;main.c: 129: case 30:
  2198                           
  2199                           ;main.c: 128: break;
  2200                           
  2201                           ;main.c: 127: RB7=1;
  2202                           
  2203                           
  2204                           ;main.c: 130: RC4=0;
  2205  010D  0020               	movlb	0	; select bank0
  2206  010E  120E               	bcf	14,4	;volatile
  2207                           
  2208                           ;main.c: 131: RB7 = 0;
  2209  010F  138D               	bcf	13,7	;volatile
  2210                           
  2211                           ;main.c: 132: _delay((unsigned long)((1000)*(48000000/4000.0)));
  2212  0110  303D               	movlw	61
  2213  0111  0023               	movlb	3	; select bank3
  2214  0112  00EC               	movwf	(??_main^(0+384)+2)
  2215  0113  30E1               	movlw	225
  2216  0114  00EB               	movwf	(??_main^(0+384)+1)
  2217  0115  307A               	movlw	122
  2218  0116  00EA               	movwf	??_main^(0+384)
  2219  0117                     u4077:	
  2220  0117  0BEA               	decfsz	??_main^(0+384),f
  2221  0118  2917               	goto	u4077
  2222  0119  0BEB               	decfsz	(??_main^(0+384)+1),f
  2223  011A  2917               	goto	u4077
  2224  011B  0BEC               	decfsz	(??_main^(0+384)+2),f
  2225  011C  2917               	goto	u4077
  2226  011D  3200               	nop2
  2227  011E  29B1               	goto	l4496
  2228  011F                     l666:	
  2229                           ;main.c: 135: case 31:
  2230                           
  2231                           ;main.c: 134: break;
  2232                           
  2233                           ;main.c: 133: RB7=1;
  2234                           
  2235                           
  2236                           ;main.c: 136: RC4=1;
  2237  011F  0020               	movlb	0	; select bank0
  2238  0120  160E               	bsf	14,4	;volatile
  2239                           
  2240                           ;main.c: 137: RB7 = 0;
  2241  0121  138D               	bcf	13,7	;volatile
  2242                           
  2243                           ;main.c: 138: _delay((unsigned long)((333)*(48000000/4000.0)));
  2244  0122  3015               	movlw	21
  2245  0123  0023               	movlb	3	; select bank3
  2246  0124  00EC               	movwf	(??_main^(0+384)+2)
  2247  0125  3046               	movlw	70
  2248  0126  00EB               	movwf	(??_main^(0+384)+1)
  2249  0127  309F               	movlw	159
  2250  0128  00EA               	movwf	??_main^(0+384)
  2251  0129                     u4087:	
  2252  0129  0BEA               	decfsz	??_main^(0+384),f
  2253  012A  2929               	goto	u4087
  2254  012B  0BEB               	decfsz	(??_main^(0+384)+1),f
  2255  012C  2929               	goto	u4087
  2256  012D  0BEC               	decfsz	(??_main^(0+384)+2),f
  2257  012E  2929               	goto	u4087
  2258  012F  0000               	nop
  2259                           
  2260                           ;main.c: 139: RB7=1;
  2261  0130  0020               	movlb	0	; select bank0
  2262  0131  178D               	bsf	13,7	;volatile
  2263                           
  2264                           ;main.c: 140: _delay((unsigned long)((333)*(48000000/4000.0)));
  2265  0132  3015               	movlw	21
  2266  0133  0023               	movlb	3	; select bank3
  2267  0134  00EC               	movwf	(??_main^(0+384)+2)
  2268  0135  3046               	movlw	70
  2269  0136  00EB               	movwf	(??_main^(0+384)+1)
  2270  0137  309F               	movlw	159
  2271  0138  00EA               	movwf	??_main^(0+384)
  2272  0139                     u4097:	
  2273  0139  0BEA               	decfsz	??_main^(0+384),f
  2274  013A  2939               	goto	u4097
  2275  013B  0BEB               	decfsz	(??_main^(0+384)+1),f
  2276  013C  2939               	goto	u4097
  2277  013D  0BEC               	decfsz	(??_main^(0+384)+2),f
  2278  013E  2939               	goto	u4097
  2279  013F  0000               	nop
  2280                           
  2281                           ;main.c: 141: RB7 = 0;
  2282  0140  0020               	movlb	0	; select bank0
  2283  0141  138D               	bcf	13,7	;volatile
  2284                           
  2285                           ;main.c: 142: _delay((unsigned long)((333)*(48000000/4000.0)));
  2286  0142  3015               	movlw	21
  2287  0143  0023               	movlb	3	; select bank3
  2288  0144  00EC               	movwf	(??_main^(0+384)+2)
  2289  0145  3046               	movlw	70
  2290  0146  00EB               	movwf	(??_main^(0+384)+1)
  2291  0147  309F               	movlw	159
  2292  0148  00EA               	movwf	??_main^(0+384)
  2293  0149                     u4107:	
  2294  0149  0BEA               	decfsz	??_main^(0+384),f
  2295  014A  2949               	goto	u4107
  2296  014B  0BEB               	decfsz	(??_main^(0+384)+1),f
  2297  014C  2949               	goto	u4107
  2298  014D  0BEC               	decfsz	(??_main^(0+384)+2),f
  2299  014E  2949               	goto	u4107
  2300  014F  0000               	nop
  2301  0150  29B1               	goto	l4496
  2302  0151                     l667:	
  2303                           ;main.c: 145: default:
  2304                           
  2305                           ;main.c: 144: break;
  2306                           
  2307                           ;main.c: 143: RB7=1;
  2308                           
  2309                           
  2310                           ;main.c: 146: RB7 = 0;
  2311  0151  0020               	movlb	0	; select bank0
  2312  0152  138D               	bcf	13,7	;volatile
  2313                           
  2314                           ;main.c: 147: _delay((unsigned long)((333)*(48000000/4000.0)));
  2315  0153  3015               	movlw	21
  2316  0154  0023               	movlb	3	; select bank3
  2317  0155  00EC               	movwf	(??_main^(0+384)+2)
  2318  0156  3046               	movlw	70
  2319  0157  00EB               	movwf	(??_main^(0+384)+1)
  2320  0158  309F               	movlw	159
  2321  0159  00EA               	movwf	??_main^(0+384)
  2322  015A                     u4117:	
  2323  015A  0BEA               	decfsz	??_main^(0+384),f
  2324  015B  295A               	goto	u4117
  2325  015C  0BEB               	decfsz	(??_main^(0+384)+1),f
  2326  015D  295A               	goto	u4117
  2327  015E  0BEC               	decfsz	(??_main^(0+384)+2),f
  2328  015F  295A               	goto	u4117
  2329  0160  0000               	nop
  2330                           
  2331                           ;main.c: 148: RB7=1;
  2332  0161  0020               	movlb	0	; select bank0
  2333  0162  178D               	bsf	13,7	;volatile
  2334                           
  2335                           ;main.c: 149: _delay((unsigned long)((333)*(48000000/4000.0)));
  2336  0163  3015               	movlw	21
  2337  0164  0023               	movlb	3	; select bank3
  2338  0165  00EC               	movwf	(??_main^(0+384)+2)
  2339  0166  3046               	movlw	70
  2340  0167  00EB               	movwf	(??_main^(0+384)+1)
  2341  0168  309F               	movlw	159
  2342  0169  00EA               	movwf	??_main^(0+384)
  2343  016A                     u4127:	
  2344  016A  0BEA               	decfsz	??_main^(0+384),f
  2345  016B  296A               	goto	u4127
  2346  016C  0BEB               	decfsz	(??_main^(0+384)+1),f
  2347  016D  296A               	goto	u4127
  2348  016E  0BEC               	decfsz	(??_main^(0+384)+2),f
  2349  016F  296A               	goto	u4127
  2350  0170  0000               	nop
  2351                           
  2352                           ;main.c: 150: RB7 = 0;
  2353  0171  0020               	movlb	0	; select bank0
  2354  0172  138D               	bcf	13,7	;volatile
  2355                           
  2356                           ;main.c: 151: _delay((unsigned long)((333)*(48000000/4000.0)));
  2357  0173  3015               	movlw	21
  2358  0174  0023               	movlb	3	; select bank3
  2359  0175  00EC               	movwf	(??_main^(0+384)+2)
  2360  0176  3046               	movlw	70
  2361  0177  00EB               	movwf	(??_main^(0+384)+1)
  2362  0178  309F               	movlw	159
  2363  0179  00EA               	movwf	??_main^(0+384)
  2364  017A                     u4137:	
  2365  017A  0BEA               	decfsz	??_main^(0+384),f
  2366  017B  297A               	goto	u4137
  2367  017C  0BEB               	decfsz	(??_main^(0+384)+1),f
  2368  017D  297A               	goto	u4137
  2369  017E  0BEC               	decfsz	(??_main^(0+384)+2),f
  2370  017F  297A               	goto	u4137
  2371  0180  0000               	nop
  2372                           
  2373                           ;main.c: 152: RB7 = 0;
  2374  0181  0020               	movlb	0	; select bank0
  2375  0182  138D               	bcf	13,7	;volatile
  2376                           
  2377                           ;main.c: 153: _delay((unsigned long)((333)*(48000000/4000.0)));
  2378  0183  3015               	movlw	21
  2379  0184  0023               	movlb	3	; select bank3
  2380  0185  00EC               	movwf	(??_main^(0+384)+2)
  2381  0186  3046               	movlw	70
  2382  0187  00EB               	movwf	(??_main^(0+384)+1)
  2383  0188  309F               	movlw	159
  2384  0189  00EA               	movwf	??_main^(0+384)
  2385  018A                     u4147:	
  2386  018A  0BEA               	decfsz	??_main^(0+384),f
  2387  018B  298A               	goto	u4147
  2388  018C  0BEB               	decfsz	(??_main^(0+384)+1),f
  2389  018D  298A               	goto	u4147
  2390  018E  0BEC               	decfsz	(??_main^(0+384)+2),f
  2391  018F  298A               	goto	u4147
  2392  0190  0000               	nop
  2393                           
  2394                           ;main.c: 154: RB7=1;
  2395  0191  0020               	movlb	0	; select bank0
  2396  0192  178D               	bsf	13,7	;volatile
  2397                           
  2398                           ;main.c: 155: _delay((unsigned long)((333)*(48000000/4000.0)));
  2399  0193  3015               	movlw	21
  2400  0194  0023               	movlb	3	; select bank3
  2401  0195  00EC               	movwf	(??_main^(0+384)+2)
  2402  0196  3046               	movlw	70
  2403  0197  00EB               	movwf	(??_main^(0+384)+1)
  2404  0198  309F               	movlw	159
  2405  0199  00EA               	movwf	??_main^(0+384)
  2406  019A                     u4157:	
  2407  019A  0BEA               	decfsz	??_main^(0+384),f
  2408  019B  299A               	goto	u4157
  2409  019C  0BEB               	decfsz	(??_main^(0+384)+1),f
  2410  019D  299A               	goto	u4157
  2411  019E  0BEC               	decfsz	(??_main^(0+384)+2),f
  2412  019F  299A               	goto	u4157
  2413  01A0  0000               	nop
  2414                           
  2415                           ;main.c: 156: RB7 = 0;
  2416  01A1  0020               	movlb	0	; select bank0
  2417  01A2  138D               	bcf	13,7	;volatile
  2418                           
  2419                           ;main.c: 157: _delay((unsigned long)((333)*(48000000/4000.0)));
  2420  01A3  3015               	movlw	21
  2421  01A4  0023               	movlb	3	; select bank3
  2422  01A5  00EC               	movwf	(??_main^(0+384)+2)
  2423  01A6  3046               	movlw	70
  2424  01A7  00EB               	movwf	(??_main^(0+384)+1)
  2425  01A8  309F               	movlw	159
  2426  01A9  00EA               	movwf	??_main^(0+384)
  2427  01AA                     u4167:	
  2428  01AA  0BEA               	decfsz	??_main^(0+384),f
  2429  01AB  29AA               	goto	u4167
  2430  01AC  0BEB               	decfsz	(??_main^(0+384)+1),f
  2431  01AD  29AA               	goto	u4167
  2432  01AE  0BEC               	decfsz	(??_main^(0+384)+2),f
  2433  01AF  29AA               	goto	u4167
  2434  01B0  0000               	nop
  2435  01B1                     l4496:	
  2436                           
  2437                           ;main.c: 158: RB7=1;
  2438  01B1  0020               	movlb	0	; select bank0
  2439  01B2  178D               	bsf	13,7	;volatile
  2440                           
  2441                           ;main.c: 160: }
  2442                           
  2443                           ;main.c: 159: break;
  2444  01B3  29C9               	goto	l4502
  2445  01B4                     l4500:	
  2446  01B4  0023               	movlb	3	; select bank3
  2447  01B5  086E               	movf	main@a^(0+384),w
  2448                           
  2449                           ; Switch size 1, requested type "space"
  2450                           ; Number of cases is 6, Range of values is 10 to 31
  2451                           ; switch strategies available:
  2452                           ; Name         Instructions Cycles
  2453                           ; simple_byte           19    10 (average)
  2454                           ; direct_byte           53     9 (fixed)
  2455                           ; jumptable            263     9 (fixed)
  2456                           ;	Chosen strategy is simple_byte
  2457  01B6  3A0A               	xorlw	10	; case 10
  2458  01B7  1903               	skipnz
  2459  01B8  2885               	goto	l660
  2460  01B9  3A01               	xorlw	1	; case 11
  2461  01BA  1903               	skipnz
  2462  01BB  2897               	goto	l662
  2463  01BC  3A1F               	xorlw	31	; case 20
  2464  01BD  1903               	skipnz
  2465  01BE  28C9               	goto	l663
  2466  01BF  3A01               	xorlw	1	; case 21
  2467  01C0  1903               	skipnz
  2468  01C1  28DB               	goto	l664
  2469  01C2  3A0B               	xorlw	11	; case 30
  2470  01C3  1903               	skipnz
  2471  01C4  290D               	goto	l665
  2472  01C5  3A01               	xorlw	1	; case 31
  2473  01C6  1903               	skipnz
  2474  01C7  291F               	goto	l666
  2475  01C8  2951               	goto	l667
  2476  01C9                     l4502:	
  2477                           
  2478                           ;main.c: 180: stanje[0]=RC2;
  2479  01C9  3000               	movlw	0
  2480  01CA  0020               	movlb	0	; select bank0
  2481  01CB  190E               	btfsc	14,2	;volatile
  2482  01CC  3001               	movlw	1
  2483  01CD  0025               	movlb	5	; select bank5
  2484  01CE  00A0               	movwf	_stanje^(0+640)
  2485                           
  2486                           ;main.c: 181: stanje[1]=RC3;
  2487  01CF  3000               	movlw	0
  2488  01D0  0020               	movlb	0	; select bank0
  2489  01D1  198E               	btfsc	14,3	;volatile
  2490  01D2  3001               	movlw	1
  2491  01D3  0025               	movlb	5	; select bank5
  2492  01D4  00A1               	movwf	(_stanje^(0+640)+1)
  2493                           
  2494                           ;main.c: 182: stanje[2]=RC4;
  2495  01D5  3000               	movlw	0
  2496  01D6  0020               	movlb	0	; select bank0
  2497  01D7  1A0E               	btfsc	14,4	;volatile
  2498  01D8  3001               	movlw	1
  2499  01D9  0025               	movlb	5	; select bank5
  2500  01DA  00A2               	movwf	(_stanje^(0+640)+2)
  2501                           
  2502                           ;main.c: 183: stanje[3]=a;
  2503  01DB  0023               	movlb	3	; select bank3
  2504  01DC  086E               	movf	main@a^(0+384),w
  2505  01DD  00EA               	movwf	??_main^(0+384)
  2506  01DE  086A               	movf	??_main^(0+384),w
  2507  01DF  0025               	movlb	5	; select bank5
  2508  01E0  00A3               	movwf	(_stanje^(0+640)+3)
  2509                           
  2510                           ;main.c: 184: putUSBUSART(stanje, 4);
  2511  01E1  3004               	movlw	4
  2512  01E2  0023               	movlb	3	; select bank3
  2513  01E3  00EA               	movwf	??_main^(0+384)
  2514  01E4  086A               	movf	??_main^(0+384),w
  2515  01E5  0022               	movlb	2	; select bank2
  2516  01E6  00E0               	movwf	putUSBUSART@length^(0+256)
  2517  01E7  30A0               	movlw	(low (_stanje| (0+512)))& (0+255)
  2518  01E8  3197  27A9  3180   	fcall	_putUSBUSART
  2519  01EB                     l4508:	
  2520                           
  2521                           ;main.c: 185: }
  2522                           ;main.c: 186: }
  2523                           ;main.c: 187: CDCTxService();
  2524  01EB  3183  23FC  3180   	fcall	_CDCTxService
  2525  01EE  286A               	goto	l4440
  2526  01EF                     __end_of_main:	
  2527                           
  2528                           	psect	text1
  2529  17A9                     __ptext1:	
  2530 ;; *************** function _putUSBUSART *****************
  2531 ;; Defined at:
  2532 ;;		line 556 in file "../lib/usb/src/usb_device_cdc.c"
  2533 ;; Parameters:    Size  Location     Type
  2534 ;;  data            1    wreg     PTR unsigned char 
  2535 ;;		 -> stanje(64), 
  2536 ;;  length          1    0[BANK2 ] unsigned char 
  2537 ;; Auto vars:     Size  Location     Type
  2538 ;;  data            1    2[BANK2 ] PTR unsigned char 
  2539 ;;		 -> stanje(64), 
  2540 ;; Return value:  Size  Location     Type
  2541 ;;                  1    wreg      void 
  2542 ;; Registers used:
  2543 ;;		wreg, status,2, status,0
  2544 ;; Tracked objects:
  2545 ;;		On entry : 0/0
  2546 ;;		On exit  : 0/0
  2547 ;;		Unchanged: 0/0
  2548 ;; Data sizes:     COMMON   BANK0   BANK1   BANK2   BANK3   BANK4   BANK5   BANK6   BANK7   BANK8   BANK9  BANK10  BANK1
      +1  BANK12
  2549 ;;      Params:         0       0       0       1       0       0       0       0       0       0       0       0       
      +0       0
  2550 ;;      Locals:         0       0       0       1       0       0       0       0       0       0       0       0       
      +0       0
  2551 ;;      Temps:          0       0       0       1       0       0       0       0       0       0       0       0       
      +0       0
  2552 ;;      Totals:         0       0       0       3       0       0       0       0       0       0       0       0       
      +0       0
  2553 ;;Total ram usage:        3 bytes
  2554 ;; Hardware stack levels used:    1
  2555 ;; Hardware stack levels required when called:   10
  2556 ;; This function calls:
  2557 ;;		Nothing
  2558 ;; This function is called by:
  2559 ;;		_main
  2560 ;; This function uses a non-reentrant model
  2561 ;;
  2562                           
  2563                           
  2564                           ;psect for function _putUSBUSART
  2565  17A9                     _putUSBUSART:	
  2566                           
  2567                           ;incstack = 0
  2568                           ; Regs used in _putUSBUSART: [wreg+status,2+status,0]
  2569                           ;putUSBUSART@data stored from wreg
  2570  17A9  0022               	movlb	2	; select bank2
  2571  17AA  00E2               	movwf	putUSBUSART@data^(0+256)
  2572                           
  2573                           ;usb_device_cdc.c: 581: {PIE2bits.USBIE = 0;};
  2574  17AB  0021               	movlb	1	; select bank1
  2575  17AC  1112               	bcf	18,2	;volatile
  2576                           
  2577                           ;usb_device_cdc.c: 582: if(cdc_trf_state == 0)
  2578  17AD  0023               	movlb	3	; select bank3
  2579  17AE  085A               	movf	_cdc_trf_state^(0+384),w
  2580  17AF  1D03               	btfss	3,2
  2581  17B0  2FC1               	goto	l4314
  2582                           
  2583                           ;usb_device_cdc.c: 583: {
  2584                           ;usb_device_cdc.c: 584: { pCDCSrc.bRam = (uint8_t*)data; cdc_tx_len = length; cdc_mem_ty
      +                          pe = 0x01; cdc_trf_state = 1; };
  2585  17B1  0022               	movlb	2	; select bank2
  2586  17B2  0862               	movf	putUSBUSART@data^(0+256),w
  2587  17B3  00E1               	movwf	??_putUSBUSART^(0+256)
  2588  17B4  0861               	movf	??_putUSBUSART^(0+256),w
  2589  17B5  0023               	movlb	3	; select bank3
  2590  17B6  00CC               	movwf	_pCDCSrc^(0+384)
  2591  17B7  0022               	movlb	2	; select bank2
  2592  17B8  0860               	movf	putUSBUSART@length^(0+256),w
  2593  17B9  00E1               	movwf	??_putUSBUSART^(0+256)
  2594  17BA  0861               	movf	??_putUSBUSART^(0+256),w
  2595  17BB  0023               	movlb	3	; select bank3
  2596  17BC  00DB               	movwf	_cdc_tx_len^(0+384)
  2597  17BD  01D8               	clrf	_cdc_mem_type^(0+384)
  2598  17BE  0AD8               	incf	_cdc_mem_type^(0+384),f
  2599  17BF  01DA               	clrf	_cdc_trf_state^(0+384)
  2600  17C0  0ADA               	incf	_cdc_trf_state^(0+384),f
  2601  17C1                     l4314:	
  2602                           
  2603                           ;usb_device_cdc.c: 585: }
  2604                           ;usb_device_cdc.c: 586: {PIE2bits.USBIE = 1;};
  2605  17C1  0021               	movlb	1	; select bank1
  2606  17C2  1512               	bsf	18,2	;volatile
  2607  17C3  0008               	return
  2608  17C4                     __end_of_putUSBUSART:	
  2609                           
  2610                           	psect	text2
  2611  0AFE                     __ptext2:	
  2612 ;; *************** function _getsUSBUSART *****************
  2613 ;; Defined at:
  2614 ;;		line 485 in file "../lib/usb/src/usb_device_cdc.c"
  2615 ;; Parameters:    Size  Location     Type
  2616 ;;  buffer          1    wreg     PTR unsigned char 
  2617 ;;		 -> readBuffer(64), 
  2618 ;;  len             1   11[BANK2 ] unsigned char 
  2619 ;; Auto vars:     Size  Location     Type
  2620 ;;  buffer          1   14[BANK2 ] PTR unsigned char 
  2621 ;;		 -> readBuffer(64), 
  2622 ;; Return value:  Size  Location     Type
  2623 ;;                  1    wreg      unsigned char 
  2624 ;; Registers used:
  2625 ;;		wreg, fsr1l, fsr1h, status,2, status,0, pclath, cstack
  2626 ;; Tracked objects:
  2627 ;;		On entry : 0/0
  2628 ;;		On exit  : 0/0
  2629 ;;		Unchanged: 0/0
  2630 ;; Data sizes:     COMMON   BANK0   BANK1   BANK2   BANK3   BANK4   BANK5   BANK6   BANK7   BANK8   BANK9  BANK10  BANK1
      +1  BANK12
  2631 ;;      Params:         0       0       0       1       0       0       0       0       0       0       0       0       
      +0       0
  2632 ;;      Locals:         0       0       0       1       0       0       0       0       0       0       0       0       
      +0       0
  2633 ;;      Temps:          0       0       0       2       0       0       0       0       0       0       0       0       
      +0       0
  2634 ;;      Totals:         0       0       0       4       0       0       0       0       0       0       0       0       
      +0       0
  2635 ;;Total ram usage:        4 bytes
  2636 ;; Hardware stack levels used:    1
  2637 ;; Hardware stack levels required when called:   11
  2638 ;; This function calls:
  2639 ;;		_USBTransferOnePacket
  2640 ;; This function is called by:
  2641 ;;		_main
  2642 ;; This function uses a non-reentrant model
  2643 ;;
  2644                           
  2645                           
  2646                           ;psect for function _getsUSBUSART
  2647  0AFE                     _getsUSBUSART:	
  2648                           
  2649                           ;incstack = 0
  2650                           ; Regs used in _getsUSBUSART: [wreg+fsr1l+fsr1h+status,2+status,0+pclath+cstack]
  2651                           ;getsUSBUSART@buffer stored from wreg
  2652  0AFE  0022               	movlb	2	; select bank2
  2653  0AFF  00EE               	movwf	getsUSBUSART@buffer^(0+256)
  2654                           
  2655                           ;usb_device_cdc.c: 487: cdc_rx_len = 0;
  2656  0B00  0023               	movlb	3	; select bank3
  2657  0B01  01D9               	clrf	_cdc_rx_len^(0+384)
  2658                           
  2659                           ;usb_device_cdc.c: 489: if(!((CDCDataOutHandle != 0x0000) && ((*(volatile uint8_t*)CDCDa
      +                          taOutHandle & 0x80) != 0x00)))
  2660  0B02  0848               	movf	_CDCDataOutHandle^(0+384),w
  2661  0B03  0449               	iorwf	(_CDCDataOutHandle+1)^(0+384),w
  2662  0B04  1903               	btfsc	3,2
  2663  0B05  2B0C               	goto	l4286
  2664  0B06  0848               	movf	_CDCDataOutHandle^(0+384),w
  2665  0B07  0086               	movwf	6
  2666  0B08  0849               	movf	(_CDCDataOutHandle+1)^(0+384),w
  2667  0B09  0087               	movwf	7
  2668  0B0A  1B81               	btfsc	1,7
  2669  0B0B  2B57               	goto	l4300
  2670  0B0C                     l4286:	
  2671                           
  2672                           ;usb_device_cdc.c: 490: {
  2673                           ;usb_device_cdc.c: 495: if(len > (((volatile BDT_ENTRY*)CDCDataOutHandle)->CNT))
  2674  0B0C  0848               	movf	_CDCDataOutHandle^(0+384),w
  2675  0B0D  0086               	movwf	6
  2676  0B0E  0849               	movf	(_CDCDataOutHandle+1)^(0+384),w
  2677  0B0F  0087               	movwf	7
  2678  0B10  3141               	addfsr 1,1
  2679  0B11  0022               	movlb	2	; select bank2
  2680  0B12  086B               	movf	getsUSBUSART@len^(0+256),w
  2681  0B13  0201               	subwf	1,w
  2682  0B14  1803               	skipnc
  2683  0B15  2B21               	goto	l4290
  2684                           
  2685                           ;usb_device_cdc.c: 496: len = (((volatile BDT_ENTRY*)CDCDataOutHandle)->CNT);
  2686  0B16  0023               	movlb	3	; select bank3
  2687  0B17  0848               	movf	_CDCDataOutHandle^(0+384),w
  2688  0B18  0086               	movwf	6
  2689  0B19  0849               	movf	(_CDCDataOutHandle+1)^(0+384),w
  2690  0B1A  0087               	movwf	7
  2691  0B1B  3141               	addfsr 1,1
  2692  0B1C  0801               	movf	1,w
  2693  0B1D  0022               	movlb	2	; select bank2
  2694  0B1E  00EC               	movwf	??_getsUSBUSART^(0+256)
  2695  0B1F  086C               	movf	??_getsUSBUSART^(0+256),w
  2696  0B20  00EB               	movwf	getsUSBUSART@len^(0+256)
  2697  0B21                     l4290:	
  2698                           
  2699                           ;usb_device_cdc.c: 501: for(cdc_rx_len = 0; cdc_rx_len < len; cdc_rx_len++)
  2700  0B21  0023               	movlb	3	; select bank3
  2701  0B22  01D9               	clrf	_cdc_rx_len^(0+384)
  2702  0B23                     l4296:	
  2703  0B23  0022               	movlb	2	; select bank2
  2704  0B24  086B               	movf	getsUSBUSART@len^(0+256),w
  2705  0B25  0023               	movlb	3	; select bank3
  2706  0B26  0259               	subwf	_cdc_rx_len^(0+384),w
  2707  0B27  1803               	btfsc	3,0
  2708  0B28  2B42               	goto	l4298
  2709                           
  2710                           ;usb_device_cdc.c: 502: buffer[cdc_rx_len] = cdc_data_rx[cdc_rx_len];
  2711  0B29  0859               	movf	_cdc_rx_len^(0+384),w
  2712  0B2A  3E20               	addlw	32
  2713  0B2B  0086               	movwf	6
  2714  0B2C  3001               	movlw	1	; select bank2/3
  2715  0B2D  0087               	movwf	7
  2716  0B2E  0801               	movf	1,w
  2717  0B2F  0022               	movlb	2	; select bank2
  2718  0B30  00EC               	movwf	??_getsUSBUSART^(0+256)
  2719  0B31  0023               	movlb	3	; select bank3
  2720  0B32  0859               	movf	_cdc_rx_len^(0+384),w
  2721  0B33  0022               	movlb	2	; select bank2
  2722  0B34  076E               	addwf	getsUSBUSART@buffer^(0+256),w
  2723  0B35  00ED               	movwf	(??_getsUSBUSART+1)^(0+256)
  2724  0B36  086D               	movf	(??_getsUSBUSART+1)^(0+256),w
  2725  0B37  0086               	movwf	6
  2726  0B38  3003               	movlw	3	; select bank6/7
  2727  0B39  0087               	movwf	7
  2728  0B3A  086C               	movf	??_getsUSBUSART^(0+256),w
  2729  0B3B  0081               	movwf	1
  2730  0B3C  3001               	movlw	1
  2731  0B3D  00EC               	movwf	??_getsUSBUSART^(0+256)
  2732  0B3E  086C               	movf	??_getsUSBUSART^(0+256),w
  2733  0B3F  0023               	movlb	3	; select bank3
  2734  0B40  07D9               	addwf	_cdc_rx_len^(0+384),f
  2735  0B41  2B23               	goto	l4296
  2736  0B42                     l4298:	
  2737                           
  2738                           ;usb_device_cdc.c: 508: CDCDataOutHandle = USBTransferOnePacket(2,0,(uint8_t*)&cdc_data_
      +                          rx,sizeof(cdc_data_rx));
  2739  0B42  0022               	movlb	2	; select bank2
  2740  0B43  01E0               	clrf	USBTransferOnePacket@dir^(0+256)
  2741  0B44  3020               	movlw	32
  2742  0B45  00E1               	movwf	USBTransferOnePacket@data^(0+256)
  2743  0B46  3001               	movlw	1
  2744  0B47  00E2               	movwf	(USBTransferOnePacket@data+1)^(0+256)
  2745  0B48  3040               	movlw	64
  2746  0B49  00EC               	movwf	??_getsUSBUSART^(0+256)
  2747  0B4A  086C               	movf	??_getsUSBUSART^(0+256),w
  2748  0B4B  00E3               	movwf	USBTransferOnePacket@len^(0+256)
  2749  0B4C  3002               	movlw	2
  2750  0B4D  318E  265C         	fcall	_USBTransferOnePacket
  2751  0B4F  0022               	movlb	2	; select bank2
  2752  0B50  0861               	movf	(?_USBTransferOnePacket+1)^(0+256),w
  2753  0B51  0023               	movlb	3	; select bank3
  2754  0B52  00C9               	movwf	(_CDCDataOutHandle+1)^(0+384)
  2755  0B53  0022               	movlb	2	; select bank2
  2756  0B54  0860               	movf	?_USBTransferOnePacket^(0+256),w
  2757  0B55  0023               	movlb	3	; select bank3
  2758  0B56  00C8               	movwf	_CDCDataOutHandle^(0+384)
  2759  0B57                     l4300:	
  2760                           
  2761                           ;usb_device_cdc.c: 510: }
  2762                           ;usb_device_cdc.c: 512: return cdc_rx_len;
  2763  0B57  0859               	movf	_cdc_rx_len^(0+384),w
  2764  0B58  0008               	return
  2765  0B59                     __end_of_getsUSBUSART:	
  2766                           
  2767                           	psect	text3
  2768  0595                     __ptext3:	
  2769 ;; *************** function _USBDeviceInit *****************
  2770 ;; Defined at:
  2771 ;;		line 277 in file "../lib/usb/src/usb_device.c"
  2772 ;; Parameters:    Size  Location     Type
  2773 ;;		None
  2774 ;; Auto vars:     Size  Location     Type
  2775 ;;  p               2    1[BANK2 ] PTR unsigned char 
  2776 ;;		 -> UEP1(1), 
  2777 ;;  i               1    3[BANK2 ] unsigned char 
  2778 ;;  i               1    4[BANK2 ] unsigned char 
  2779 ;; Return value:  Size  Location     Type
  2780 ;;                  1    wreg      void 
  2781 ;; Registers used:
  2782 ;;		wreg, fsr1l, fsr1h, status,2, status,0
  2783 ;; Tracked objects:
  2784 ;;		On entry : 0/0
  2785 ;;		On exit  : 0/0
  2786 ;;		Unchanged: 0/0
  2787 ;; Data sizes:     COMMON   BANK0   BANK1   BANK2   BANK3   BANK4   BANK5   BANK6   BANK7   BANK8   BANK9  BANK10  BANK1
      +1  BANK12
  2788 ;;      Params:         0       0       0       0       0       0       0       0       0       0       0       0       
      +0       0
  2789 ;;      Locals:         0       0       0       4       0       0       0       0       0       0       0       0       
      +0       0
  2790 ;;      Temps:          0       0       0       1       0       0       0       0       0       0       0       0       
      +0       0
  2791 ;;      Totals:         0       0       0       5       0       0       0       0       0       0       0       0       
      +0       0
  2792 ;;Total ram usage:        5 bytes
  2793 ;; Hardware stack levels used:    1
  2794 ;; Hardware stack levels required when called:   10
  2795 ;; This function calls:
  2796 ;;		Nothing
  2797 ;; This function is called by:
  2798 ;;		_main
  2799 ;; This function uses a non-reentrant model
  2800 ;;
  2801                           
  2802                           
  2803                           ;psect for function _USBDeviceInit
  2804  0595                     _USBDeviceInit:	
  2805                           
  2806                           ;usb_device.c: 279: uint8_t i;
  2807                           ;usb_device.c: 281: {PIE2bits.USBIE = 0;};
  2808                           
  2809                           ;incstack = 0
  2810                           ; Regs used in _USBDeviceInit: [wreg+fsr1l+fsr1h+status,2+status,0]
  2811  0595  0021               	movlb	1	; select bank1
  2812  0596  1112               	bcf	18,2	;volatile
  2813                           
  2814                           ;usb_device.c: 285: ;
  2815                           ;usb_device.c: 288: {UEIR = 0;};
  2816  0597  003D               	movlb	29	; select bank29
  2817  0598  0193               	clrf	19	;volatile
  2818                           
  2819                           ;usb_device.c: 291: {UIR = 0;};
  2820  0599  0190               	clrf	16	;volatile
  2821                           
  2822                           ;usb_device.c: 294: UEP0 = 0;
  2823  059A  0198               	clrf	24	;volatile
  2824                           
  2825                           ;usb_device.c: 296: { uint8_t i; uint8_t* p = (uint8_t*)&UEP1; for(i=0;i<2;i++) *p++ = 0
      +                          ; };
  2826  059B  300E               	movlw	14
  2827  059C  0022               	movlb	2	; select bank2
  2828  059D  00E2               	movwf	(USBDeviceInit@p+1)^(0+256)
  2829  059E  3099               	movlw	153
  2830  059F  00E1               	movwf	USBDeviceInit@p^(0+256)
  2831  05A0  01E3               	clrf	USBDeviceInit@i_821^(0+256)
  2832  05A1  3002               	movlw	2
  2833  05A2  0263               	subwf	USBDeviceInit@i_821^(0+256),w
  2834  05A3  1803               	btfsc	3,0
  2835  05A4  2DB6               	goto	l4194
  2836  05A5                     l4186:	
  2837  05A5  0861               	movf	USBDeviceInit@p^(0+256),w
  2838  05A6  0086               	movwf	6
  2839  05A7  0862               	movf	(USBDeviceInit@p+1)^(0+256),w
  2840  05A8  0087               	movwf	7
  2841  05A9  0181               	clrf	1
  2842  05AA  3001               	movlw	1
  2843  05AB  07E1               	addwf	USBDeviceInit@p^(0+256),f
  2844  05AC  3000               	movlw	0
  2845  05AD  3DE2               	addwfc	(USBDeviceInit@p+1)^(0+256),f
  2846  05AE  3001               	movlw	1
  2847  05AF  00E0               	movwf	??_USBDeviceInit^(0+256)
  2848  05B0  0860               	movf	??_USBDeviceInit^(0+256),w
  2849  05B1  07E3               	addwf	USBDeviceInit@i_821^(0+256),f
  2850  05B2  3002               	movlw	2
  2851  05B3  0263               	subwf	USBDeviceInit@i_821^(0+256),w
  2852  05B4  1C03               	skipc
  2853  05B5  2DA5               	goto	l4186
  2854  05B6                     l4194:	
  2855                           
  2856                           ;usb_device.c: 298: { UCFG = 0x10 | 0x00 | 0x04 | 0x02; UEIE = 0x9F; UIE = 0x39 | 0x40 |
      +                           0x02; };
  2857  05B6  3016               	movlw	22
  2858  05B7  003D               	movlb	29	; select bank29
  2859  05B8  0091               	movwf	17	;volatile
  2860  05B9  309F               	movlw	159
  2861  05BA  0097               	movwf	23	;volatile
  2862  05BB  307B               	movlw	123
  2863  05BC  0092               	movwf	18	;volatile
  2864                           
  2865                           ;usb_device.c: 301: ;
  2866                           ;usb_device.c: 304: ;
  2867                           ;usb_device.c: 307: for(i = 0; i < (sizeof(BDT)/sizeof(BDT_ENTRY)); i++)
  2868  05BD  0022               	movlb	2	; select bank2
  2869  05BE  01E4               	clrf	USBDeviceInit@i^(0+256)
  2870  05BF  300C               	movlw	12
  2871  05C0  0264               	subwf	USBDeviceInit@i^(0+256),w
  2872  05C1  1803               	btfsc	3,0
  2873  05C2  2DDC               	goto	l173
  2874  05C3                     l4202:	
  2875                           
  2876                           ;usb_device.c: 308: {
  2877                           ;usb_device.c: 309: BDT[i].Val = 0x00;
  2878  05C3  0864               	movf	USBDeviceInit@i^(0+256),w
  2879  05C4  00E0               	movwf	??_USBDeviceInit^(0+256)
  2880  05C5  3001               	movlw	1
  2881  05C6                     u3715:	
  2882  05C6  35E0               	lslf	??_USBDeviceInit^(0+256),f
  2883  05C7  3EFF               	addlw	-1
  2884  05C8  1D03               	skipz
  2885  05C9  2DC6               	goto	u3715
  2886  05CA  3560               	lslf	??_USBDeviceInit^(0+256),w
  2887  05CB  3E20               	addlw	32
  2888  05CC  0086               	movwf	6
  2889  05CD  0187               	clrf	7
  2890  05CE  3000               	movlw	0
  2891  05CF  3FC0               	movwi [0]fsr1
  2892  05D0  3000               	movlw	0
  2893  05D1  3FC1               	movwi [1]fsr1
  2894  05D2  3FC2               	movwi [2]fsr1
  2895  05D3  3FC3               	movwi [3]fsr1
  2896  05D4  3001               	movlw	1
  2897  05D5  00E0               	movwf	??_USBDeviceInit^(0+256)
  2898  05D6  0860               	movf	??_USBDeviceInit^(0+256),w
  2899  05D7  07E4               	addwf	USBDeviceInit@i^(0+256),f
  2900  05D8  300C               	movlw	12
  2901  05D9  0264               	subwf	USBDeviceInit@i^(0+256),w
  2902  05DA  1C03               	skipc
  2903  05DB  2DC3               	goto	l4202
  2904  05DC                     l173:	
  2905                           
  2906                           ;usb_device.c: 310: }
  2907                           ;usb_device.c: 313: UCONbits.PPBRST = 1;
  2908  05DC  003D               	movlb	29	; select bank29
  2909  05DD  170E               	bsf	14,6	;volatile
  2910                           
  2911                           ;usb_device.c: 316: UADDR = 0x00;
  2912  05DE  0196               	clrf	22	;volatile
  2913                           
  2914                           ;usb_device.c: 319: UCONbits.PKTDIS = 0;
  2915  05DF  120E               	bcf	14,4	;volatile
  2916                           
  2917                           ;usb_device.c: 322: UCONbits.PPBRST = 0;
  2918  05E0  130E               	bcf	14,6	;volatile
  2919  05E1                     l4214:	
  2920                           ;usb_device.c: 325: do
  2921                           
  2922                           
  2923                           ;usb_device.c: 326: {
  2924                           ;usb_device.c: 327: (UIR &= 0xF7);
  2925  05E1  30F7               	movlw	247
  2926  05E2  0022               	movlb	2	; select bank2
  2927  05E3  00E0               	movwf	??_USBDeviceInit^(0+256)
  2928  05E4  0860               	movf	??_USBDeviceInit^(0+256),w
  2929  05E5  003D               	movlb	29	; select bank29
  2930  05E6  0590               	andwf	16,f	;volatile
  2931                           
  2932                           ;usb_device.c: 329: inPipes[0].info.Val = 0;
  2933  05E7  0023               	movlb	3	; select bank3
  2934  05E8  01B5               	clrf	(_inPipes^(0+384)+2)	;volatile
  2935                           
  2936                           ;usb_device.c: 330: outPipes[0].info.Val = 0;
  2937  05E9  01A2               	clrf	(_outPipes^(0+384)+2)	;volatile
  2938                           
  2939                           ;usb_device.c: 331: outPipes[0].wCount.Val = 0;
  2940  05EA  01A3               	clrf	(_outPipes^(0+384)+3)	;volatile
  2941  05EB  01A4               	clrf	((_outPipes+1)^(0+384)+3)	;volatile
  2942                           
  2943                           ;usb_device.c: 332: }while(UIRbits.TRNIF == 1);
  2944  05EC  003D               	movlb	29	; select bank29
  2945  05ED  1990               	btfsc	16,3	;volatile
  2946  05EE  2DE1               	goto	l4214
  2947                           
  2948                           ;usb_device.c: 336: USBStatusStageEnabledFlag1 = 1;
  2949  05EF  3001               	movlw	1
  2950  05F0  0022               	movlb	2	; select bank2
  2951  05F1  00E0               	movwf	??_USBDeviceInit^(0+256)
  2952  05F2  0860               	movf	??_USBDeviceInit^(0+256),w
  2953  05F3  0023               	movlb	3	; select bank3
  2954  05F4  00D4               	movwf	_USBStatusStageEnabledFlag1^(0+384)	;volatile
  2955                           
  2956                           ;usb_device.c: 337: USBStatusStageEnabledFlag2 = 1;
  2957  05F5  3001               	movlw	1
  2958  05F6  0022               	movlb	2	; select bank2
  2959  05F7  00E0               	movwf	??_USBDeviceInit^(0+256)
  2960  05F8  0860               	movf	??_USBDeviceInit^(0+256),w
  2961  05F9  0023               	movlb	3	; select bank3
  2962  05FA  00D5               	movwf	_USBStatusStageEnabledFlag2^(0+384)	;volatile
  2963                           
  2964                           ;usb_device.c: 339: USBDeferINDataStagePackets = 0;
  2965  05FB  01D1               	clrf	_USBDeferINDataStagePackets^(0+384)	;volatile
  2966                           
  2967                           ;usb_device.c: 340: USBDeferOUTDataStagePackets = 0;
  2968  05FC  01D2               	clrf	_USBDeferOUTDataStagePackets^(0+384)	;volatile
  2969                           
  2970                           ;usb_device.c: 341: USBBusIsSuspended = 0;
  2971  05FD  01D0               	clrf	_USBBusIsSuspended^(0+384)	;volatile
  2972                           
  2973                           ;usb_device.c: 345: for(i = 0; i < (uint8_t)(2+1u); i++)
  2974  05FE  0022               	movlb	2	; select bank2
  2975  05FF  01E4               	clrf	USBDeviceInit@i^(0+256)
  2976  0600  3003               	movlw	3
  2977  0601  0264               	subwf	USBDeviceInit@i^(0+256),w
  2978  0602  1803               	btfsc	3,0
  2979  0603  2E28               	goto	l4242
  2980  0604                     l4236:	
  2981                           
  2982                           ;usb_device.c: 346: {
  2983                           ;usb_device.c: 347: pBDTEntryIn[i] = 0u;
  2984  0604  3564               	lslf	USBDeviceInit@i^(0+256),w
  2985  0605  3EA7               	addlw	(low (_pBDTEntryIn| (0+256)))& (0+255)
  2986  0606  0086               	movwf	6
  2987  0607  3001               	movlw	1	; select bank3/4
  2988  0608  0087               	movwf	7
  2989  0609  3000               	movlw	0
  2990  060A  3FC0               	movwi [0]fsr1
  2991  060B  3FC1               	movwi [1]fsr1
  2992                           
  2993                           ;usb_device.c: 348: pBDTEntryOut[i] = 0u;
  2994  060C  3564               	lslf	USBDeviceInit@i^(0+256),w
  2995  060D  3EAD               	addlw	(low (_pBDTEntryOut| (0+256)))& (0+255)
  2996  060E  0086               	movwf	6
  2997  060F  3001               	movlw	1	; select bank3/4
  2998  0610  0087               	movwf	7
  2999  0611  3000               	movlw	0
  3000  0612  3FC0               	movwi [0]fsr1
  3001  0613  3FC1               	movwi [1]fsr1
  3002                           
  3003                           ;usb_device.c: 349: ep_data_in[i].Val = 0u;
  3004  0614  0864               	movf	USBDeviceInit@i^(0+256),w
  3005  0615  3EC0               	addlw	(low (_ep_data_in| (0+256)))& (0+255)
  3006  0616  0086               	movwf	6
  3007  0617  3001               	movlw	1	; select bank3/4
  3008  0618  0087               	movwf	7
  3009  0619  0181               	clrf	1
  3010                           
  3011                           ;usb_device.c: 350: ep_data_out[i].Val = 0u;
  3012  061A  0864               	movf	USBDeviceInit@i^(0+256),w
  3013  061B  3EC3               	addlw	(low (_ep_data_out| (0+256)))& (0+255)
  3014  061C  0086               	movwf	6
  3015  061D  3001               	movlw	1	; select bank3/4
  3016  061E  0087               	movwf	7
  3017  061F  0181               	clrf	1
  3018  0620  3001               	movlw	1
  3019  0621  00E0               	movwf	??_USBDeviceInit^(0+256)
  3020  0622  0860               	movf	??_USBDeviceInit^(0+256),w
  3021  0623  07E4               	addwf	USBDeviceInit@i^(0+256),f
  3022  0624  3003               	movlw	3
  3023  0625  0264               	subwf	USBDeviceInit@i^(0+256),w
  3024  0626  1C03               	skipc
  3025  0627  2E04               	goto	l4236
  3026  0628                     l4242:	
  3027                           
  3028                           ;usb_device.c: 351: }
  3029                           ;usb_device.c: 354: pBDTEntryIn[0] = (volatile BDT_ENTRY*)&BDT[2];
  3030  0628  3028               	movlw	40
  3031  0629  0023               	movlb	3	; select bank3
  3032  062A  00A7               	movwf	_pBDTEntryIn^(0+384)
  3033  062B  3000               	movlw	0
  3034  062C  00A8               	movwf	(_pBDTEntryIn+1)^(0+384)
  3035                           
  3036                           ;usb_device.c: 356: UEP0 = 0x06|0x10;
  3037  062D  3016               	movlw	22
  3038  062E  003D               	movlb	29	; select bank29
  3039  062F  0098               	movwf	24	;volatile
  3040                           
  3041                           ;usb_device.c: 358: BDT[0].ADR = (((uint16_t)(&SetupPkt)) & 0x7FFF);
  3042  0630  3000               	movlw	0
  3043  0631  0020               	movlb	0	; select bank0
  3044  0632  00A3               	movwf	35	;volatile
  3045  0633  3050               	movlw	80
  3046  0634  00A2               	movwf	34	;volatile
  3047                           
  3048                           ;usb_device.c: 359: BDT[0].CNT = 8;
  3049  0635  3008               	movlw	8
  3050  0636  00A1               	movwf	33	;volatile
  3051                           
  3052                           ;usb_device.c: 360: BDT[0].STAT.Val = 0x00|0x04;
  3053  0637  3004               	movlw	4
  3054  0638  0022               	movlb	2	; select bank2
  3055  0639  00E0               	movwf	??_USBDeviceInit^(0+256)
  3056  063A  0860               	movf	??_USBDeviceInit^(0+256),w
  3057  063B  0020               	movlb	0	; select bank0
  3058  063C  00A0               	movwf	32	;volatile
  3059                           
  3060                           ;usb_device.c: 361: BDT[0].STAT.Val |= 0x80;
  3061  063D  17A0               	bsf	32,7	;volatile
  3062                           
  3063                           ;usb_device.c: 364: USBActiveConfiguration = 0;
  3064  063E  0023               	movlb	3	; select bank3
  3065  063F  01E9               	clrf	_USBActiveConfiguration^(0+384)	;volatile
  3066                           
  3067                           ;usb_device.c: 366: USB1msTickCount = 0;
  3068  0640  3000               	movlw	0
  3069  0641  00BF               	movwf	(_USB1msTickCount+3)^(0+384)	;volatile
  3070  0642  3000               	movlw	0
  3071  0643  00BE               	movwf	(_USB1msTickCount+2)^(0+384)	;volatile
  3072  0644  3000               	movlw	0
  3073  0645  00BD               	movwf	(_USB1msTickCount+1)^(0+384)	;volatile
  3074  0646  3000               	movlw	0
  3075  0647  00BC               	movwf	_USB1msTickCount^(0+384)	;volatile
  3076                           
  3077                           ;usb_device.c: 367: USBTicksSinceSuspendEnd = 0;
  3078  0648  01D7               	clrf	_USBTicksSinceSuspendEnd^(0+384)	;volatile
  3079                           
  3080                           ;usb_device.c: 370: USBDeviceState = DETACHED_STATE;
  3081  0649  0021               	movlb	1	; select bank1
  3082  064A  01E2               	clrf	_USBDeviceState^(0+128)	;volatile
  3083  064B  0008               	return
  3084  064C                     __end_of_USBDeviceInit:	
  3085                           
  3086                           	psect	text4
  3087  17C4                     __ptext4:	
  3088 ;; *************** function _USBDeviceAttach *****************
  3089 ;; Defined at:
  3090 ;;		line 1352 in file "../lib/usb/src/usb_device.c"
  3091 ;; Parameters:    Size  Location     Type
  3092 ;;		None
  3093 ;; Auto vars:     Size  Location     Type
  3094 ;;		None
  3095 ;; Return value:  Size  Location     Type
  3096 ;;                  1    wreg      void 
  3097 ;; Registers used:
  3098 ;;		wreg, status,2, status,0
  3099 ;; Tracked objects:
  3100 ;;		On entry : 0/0
  3101 ;;		On exit  : 0/0
  3102 ;;		Unchanged: 0/0
  3103 ;; Data sizes:     COMMON   BANK0   BANK1   BANK2   BANK3   BANK4   BANK5   BANK6   BANK7   BANK8   BANK9  BANK10  BANK1
      +1  BANK12
  3104 ;;      Params:         0       0       0       0       0       0       0       0       0       0       0       0       
      +0       0
  3105 ;;      Locals:         0       0       0       0       0       0       0       0       0       0       0       0       
      +0       0
  3106 ;;      Temps:          0       0       0       1       0       0       0       0       0       0       0       0       
      +0       0
  3107 ;;      Totals:         0       0       0       1       0       0       0       0       0       0       0       0       
      +0       0
  3108 ;;Total ram usage:        1 bytes
  3109 ;; Hardware stack levels used:    1
  3110 ;; Hardware stack levels required when called:   10
  3111 ;; This function calls:
  3112 ;;		Nothing
  3113 ;; This function is called by:
  3114 ;;		_main
  3115 ;; This function uses a non-reentrant model
  3116 ;;
  3117                           
  3118                           
  3119                           ;psect for function _USBDeviceAttach
  3120  17C4                     _USBDeviceAttach:	
  3121                           
  3122                           ;usb_device.c: 1356: {
  3123                           ;usb_device.c: 1357: if(1 == 1)
  3124                           
  3125                           ;incstack = 0
  3126                           ; Regs used in _USBDeviceAttach: [wreg+status,2+status,0]
  3127  17C4  0021               	movlb	1	; select bank1
  3128  17C5  0862               	movf	_USBDeviceState^(0+128),w	;volatile
  3129  17C6  1D03               	btfss	3,2
  3130  17C7  0008               	return
  3131                           
  3132                           ;usb_device.c: 1358: {
  3133                           ;usb_device.c: 1360: UCON = 0;
  3134  17C8  003D               	movlb	29	; select bank29
  3135  17C9  018E               	clrf	14	;volatile
  3136                           
  3137                           ;usb_device.c: 1363: UIE = 0;
  3138  17CA  0192               	clrf	18	;volatile
  3139                           
  3140                           ;usb_device.c: 1367: { UCFG = 0x10 | 0x00 | 0x04 | 0x02; UEIE = 0x9F; UIE = 0x39 | 0x40 
      +                          | 0x02; };
  3141  17CB  3016               	movlw	22
  3142  17CC  0091               	movwf	17	;volatile
  3143  17CD  309F               	movlw	159
  3144  17CE  0097               	movwf	23	;volatile
  3145  17CF  307B               	movlw	123
  3146  17D0  0092               	movwf	18	;volatile
  3147                           
  3148                           ;usb_device.c: 1369: {PIE2bits.USBIE = 1;INTCONbits.PEIE = 1; INTCONbits.GIE = 1;};
  3149  17D1  0021               	movlb	1	; select bank1
  3150  17D2  1512               	bsf	18,2	;volatile
  3151  17D3  170B               	bsf	11,6	;volatile
  3152  17D4  178B               	bsf	11,7	;volatile
  3153  17D5                     l233:	
  3154                           ;usb_device.c: 1372: while(!UCONbits.USBEN){UCONbits.USBEN = 1;}
  3155                           
  3156  17D5  003D               	movlb	29	; select bank29
  3157  17D6  198E               	btfsc	14,3	;volatile
  3158  17D7  2FDA               	goto	l4278
  3159  17D8  158E               	bsf	14,3	;volatile
  3160  17D9  2FD5               	goto	l233
  3161  17DA                     l4278:	
  3162                           
  3163                           ;usb_device.c: 1375: USBDeviceState = ATTACHED_STATE;
  3164  17DA  3001               	movlw	1
  3165  17DB  0022               	movlb	2	; select bank2
  3166  17DC  00E0               	movwf	??_USBDeviceAttach^(0+256)
  3167  17DD  0860               	movf	??_USBDeviceAttach^(0+256),w
  3168  17DE  0021               	movlb	1	; select bank1
  3169  17DF  00E2               	movwf	_USBDeviceState^(0+128)	;volatile
  3170  17E0  0008               	return
  3171  17E1                     __end_of_USBDeviceAttach:	
  3172                           
  3173                           	psect	text5
  3174  1762                     __ptext5:	
  3175 ;; *************** function _SYSTEM_Initialize *****************
  3176 ;; Defined at:
  3177 ;;		line 82 in file "system.c"
  3178 ;; Parameters:    Size  Location     Type
  3179 ;;  state           1    wreg     enum E2613
  3180 ;; Auto vars:     Size  Location     Type
  3181 ;;  state           1    0[BANK2 ] enum E2613
  3182 ;; Return value:  Size  Location     Type
  3183 ;;                  1    wreg      void 
  3184 ;; Registers used:
  3185 ;;		wreg, fsr0l, fsr0h, status,2, status,0
  3186 ;; Tracked objects:
  3187 ;;		On entry : 0/0
  3188 ;;		On exit  : 0/0
  3189 ;;		Unchanged: 0/0
  3190 ;; Data sizes:     COMMON   BANK0   BANK1   BANK2   BANK3   BANK4   BANK5   BANK6   BANK7   BANK8   BANK9  BANK10  BANK1
      +1  BANK12
  3191 ;;      Params:         0       0       0       0       0       0       0       0       0       0       0       0       
      +0       0
  3192 ;;      Locals:         0       0       0       1       0       0       0       0       0       0       0       0       
      +0       0
  3193 ;;      Temps:          0       0       0       0       0       0       0       0       0       0       0       0       
      +0       0
  3194 ;;      Totals:         0       0       0       1       0       0       0       0       0       0       0       0       
      +0       0
  3195 ;;Total ram usage:        1 bytes
  3196 ;; Hardware stack levels used:    1
  3197 ;; Hardware stack levels required when called:   10
  3198 ;; This function calls:
  3199 ;;		Nothing
  3200 ;; This function is called by:
  3201 ;;		_main
  3202 ;; This function uses a non-reentrant model
  3203 ;;
  3204                           
  3205                           
  3206                           ;psect for function _SYSTEM_Initialize
  3207  1762                     _SYSTEM_Initialize:	
  3208                           
  3209                           ;incstack = 0
  3210                           ; Regs used in _SYSTEM_Initialize: [wreg-fsr0h+status,2+status,0]
  3211                           ;SYSTEM_Initialize@state stored from wreg
  3212  1762  0022               	movlb	2	; select bank2
  3213  1763  00E0               	movwf	SYSTEM_Initialize@state^(0+256)
  3214                           
  3215                           ;system.c: 84: switch(state)
  3216  1764  2F6C               	goto	l4156
  3217  1765                     l4152:	
  3218                           ;system.c: 85: {
  3219                           ;system.c: 86: case SYSTEM_STATE_USB_START:
  3220                           
  3221                           
  3222                           ;system.c: 90: OSCCON = 0xFC;
  3223  1765  30FC               	movlw	252
  3224  1766  0021               	movlb	1	; select bank1
  3225  1767  0099               	movwf	25	;volatile
  3226                           
  3227                           ;system.c: 91: ACTCON = 0x90;
  3228  1768  3090               	movlw	144
  3229  1769  0027               	movlb	7	; select bank7
  3230  176A  009B               	movwf	27	;volatile
  3231                           
  3232                           ;system.c: 102: }
  3233                           
  3234                           ;system.c: 101: break;
  3235                           
  3236                           ;system.c: 100: case SYSTEM_STATE_USB_RESUME:
  3237                           
  3238                           ;system.c: 98: break;
  3239                           
  3240                           ;system.c: 97: case SYSTEM_STATE_USB_SUSPEND:
  3241                           
  3242                           ;system.c: 95: break;
  3243  176B  0008               	return
  3244  176C                     l4156:	
  3245  176C  0022               	movlb	2	; select bank2
  3246  176D  0860               	movf	SYSTEM_Initialize@state^(0+256),w
  3247                           
  3248                           ; Switch size 1, requested type "space"
  3249                           ; Number of cases is 3, Range of values is 0 to 2
  3250                           ; switch strategies available:
  3251                           ; Name         Instructions Cycles
  3252                           ; simple_byte           10     6 (average)
  3253                           ; direct_byte           12     6 (fixed)
  3254                           ; jumptable            260     6 (fixed)
  3255                           ;	Chosen strategy is simple_byte
  3256  176E  3A00               	xorlw	0	; case 0
  3257  176F  1903               	skipnz
  3258  1770  2F65               	goto	l4152
  3259  1771  3A01               	xorlw	1	; case 1
  3260  1772  1903               	skipnz
  3261  1773  2F78               	goto	l565
  3262  1774  3A03               	xorlw	3	; case 2
  3263  1775  1903               	skipnz
  3264  1776  2F78               	goto	l565
  3265  1777  2F78               	goto	l565
  3266  1778                     l565:	
  3267  1778  0008               	return
  3268  1779                     __end_of_SYSTEM_Initialize:	
  3269                           
  3270                           	psect	text6
  3271  03FC                     __ptext6:	
  3272 ;; *************** function _CDCTxService *****************
  3273 ;; Defined at:
  3274 ;;		line 836 in file "../lib/usb/src/usb_device_cdc.c"
  3275 ;; Parameters:    Size  Location     Type
  3276 ;;		None
  3277 ;; Auto vars:     Size  Location     Type
  3278 ;;  byte_to_send    1   13[BANK2 ] unsigned char 
  3279 ;;  i               1   12[BANK2 ] unsigned char 
  3280 ;; Return value:  Size  Location     Type
  3281 ;;                  1    wreg      void 
  3282 ;; Registers used:
  3283 ;;		wreg, fsr1l, fsr1h, status,2, status,0, pclath, cstack
  3284 ;; Tracked objects:
  3285 ;;		On entry : 0/0
  3286 ;;		On exit  : 0/0
  3287 ;;		Unchanged: 0/0
  3288 ;; Data sizes:     COMMON   BANK0   BANK1   BANK2   BANK3   BANK4   BANK5   BANK6   BANK7   BANK8   BANK9  BANK10  BANK1
      +1  BANK12
  3289 ;;      Params:         0       0       0       0       0       0       0       0       0       0       0       0       
      +0       0
  3290 ;;      Locals:         0       0       0       2       0       0       0       0       0       0       0       0       
      +0       0
  3291 ;;      Temps:          0       0       0       1       0       0       0       0       0       0       0       0       
      +0       0
  3292 ;;      Totals:         0       0       0       3       0       0       0       0       0       0       0       0       
      +0       0
  3293 ;;Total ram usage:        3 bytes
  3294 ;; Hardware stack levels used:    1
  3295 ;; Hardware stack levels required when called:   11
  3296 ;; This function calls:
  3297 ;;		_USBTransferOnePacket
  3298 ;; This function is called by:
  3299 ;;		_main
  3300 ;; This function uses a non-reentrant model
  3301 ;;
  3302                           
  3303                           
  3304                           ;psect for function _CDCTxService
  3305  03FC                     _CDCTxService:	
  3306                           
  3307                           ;usb_device_cdc.c: 838: uint8_t byte_to_send;
  3308                           ;usb_device_cdc.c: 839: uint8_t i;
  3309                           ;usb_device_cdc.c: 841: {PIE2bits.USBIE = 0;};
  3310                           
  3311                           ;incstack = 0
  3312                           ; Regs used in _CDCTxService: [wreg+fsr1l+fsr1h+status,2+status,0+pclath+cstack]
  3313  03FC  0021               	movlb	1	; select bank1
  3314  03FD  1112               	bcf	18,2	;volatile
  3315                           
  3316                           ;usb_device_cdc.c: 843: {};
  3317                           ;usb_device_cdc.c: 845: if(((CDCDataInHandle != 0x0000) && ((*(volatile uint8_t*)CDCData
      +                          InHandle & 0x80) != 0x00)))
  3318  03FE  0023               	movlb	3	; select bank3
  3319  03FF  0846               	movf	_CDCDataInHandle^(0+384),w
  3320  0400  0447               	iorwf	(_CDCDataInHandle+1)^(0+384),w
  3321  0401  1903               	btfsc	3,2
  3322  0402  2C0C               	goto	l4324
  3323  0403  0846               	movf	_CDCDataInHandle^(0+384),w
  3324  0404  0086               	movwf	6
  3325  0405  0847               	movf	(_CDCDataInHandle+1)^(0+384),w
  3326  0406  0087               	movwf	7
  3327  0407  1F81               	btfss	1,7
  3328  0408  2C0C               	goto	l4324
  3329                           
  3330                           ;usb_device_cdc.c: 846: {
  3331                           ;usb_device_cdc.c: 847: {PIE2bits.USBIE = 1;};
  3332  0409  0021               	movlb	1	; select bank1
  3333  040A  1512               	bsf	18,2	;volatile
  3334                           
  3335                           ;usb_device_cdc.c: 848: return;
  3336  040B  0008               	return
  3337  040C                     l4324:	
  3338                           
  3339                           ;usb_device_cdc.c: 849: }
  3340                           ;usb_device_cdc.c: 856: if(cdc_trf_state == 3)
  3341  040C  3003               	movlw	3
  3342  040D  0023               	movlb	3	; select bank3
  3343  040E  065A               	xorwf	_cdc_trf_state^(0+384),w
  3344  040F  1903               	btfsc	3,2
  3345                           
  3346                           ;usb_device_cdc.c: 857: cdc_trf_state = 0;
  3347  0410  01DA               	clrf	_cdc_trf_state^(0+384)
  3348                           
  3349                           ;usb_device_cdc.c: 862: if(cdc_trf_state == 0)
  3350  0411  085A               	movf	_cdc_trf_state^(0+384),w
  3351  0412  1D03               	btfss	3,2
  3352  0413  2C17               	goto	l4332
  3353                           
  3354                           ;usb_device_cdc.c: 863: {
  3355                           ;usb_device_cdc.c: 864: {PIE2bits.USBIE = 1;};
  3356  0414  0021               	movlb	1	; select bank1
  3357  0415  1512               	bsf	18,2	;volatile
  3358                           
  3359                           ;usb_device_cdc.c: 865: return;
  3360  0416  0008               	return
  3361  0417                     l4332:	
  3362                           
  3363                           ;usb_device_cdc.c: 866: }
  3364                           ;usb_device_cdc.c: 871: if(cdc_trf_state == 2)
  3365  0417  3002               	movlw	2
  3366  0418  0023               	movlb	3	; select bank3
  3367  0419  065A               	xorwf	_cdc_trf_state^(0+384),w
  3368  041A  1D03               	btfss	3,2
  3369  041B  2C37               	goto	l4338
  3370                           
  3371                           ;usb_device_cdc.c: 872: {
  3372                           ;usb_device_cdc.c: 873: CDCDataInHandle = USBTransferOnePacket(2,1,(0),0);
  3373  041C  0022               	movlb	2	; select bank2
  3374  041D  01E0               	clrf	USBTransferOnePacket@dir^(0+256)
  3375  041E  0AE0               	incf	USBTransferOnePacket@dir^(0+256),f
  3376  041F  3000               	movlw	0
  3377  0420  00E1               	movwf	USBTransferOnePacket@data^(0+256)
  3378  0421  3000               	movlw	0
  3379  0422  00E2               	movwf	(USBTransferOnePacket@data+1)^(0+256)
  3380  0423  01E3               	clrf	USBTransferOnePacket@len^(0+256)
  3381  0424  3002               	movlw	2
  3382  0425  318E  265C  3183   	fcall	_USBTransferOnePacket
  3383  0428  0022               	movlb	2	; select bank2
  3384  0429  0861               	movf	(?_USBTransferOnePacket+1)^(0+256),w
  3385  042A  0023               	movlb	3	; select bank3
  3386  042B  00C7               	movwf	(_CDCDataInHandle+1)^(0+384)
  3387  042C  0022               	movlb	2	; select bank2
  3388  042D  0860               	movf	?_USBTransferOnePacket^(0+256),w
  3389  042E  0023               	movlb	3	; select bank3
  3390  042F  00C6               	movwf	_CDCDataInHandle^(0+384)
  3391                           
  3392                           ;usb_device_cdc.c: 875: cdc_trf_state = 3;
  3393  0430  3003               	movlw	3
  3394  0431  0022               	movlb	2	; select bank2
  3395  0432  00EB               	movwf	??_CDCTxService^(0+256)
  3396  0433  086B               	movf	??_CDCTxService^(0+256),w
  3397  0434  0023               	movlb	3	; select bank3
  3398  0435  00DA               	movwf	_cdc_trf_state^(0+384)
  3399                           
  3400                           ;usb_device_cdc.c: 876: }
  3401  0436  2CC9               	goto	l4386
  3402  0437                     l4338:	
  3403                           
  3404                           ;usb_device_cdc.c: 877: else if(cdc_trf_state == 1)
  3405  0437  035A               	decf	_cdc_trf_state^(0+384),w
  3406  0438  1D03               	btfss	3,2
  3407  0439  2CC9               	goto	l4386
  3408                           
  3409                           ;usb_device_cdc.c: 878: {
  3410                           ;usb_device_cdc.c: 882: if(cdc_tx_len > sizeof(cdc_data_tx))
  3411  043A  3041               	movlw	65
  3412  043B  025B               	subwf	_cdc_tx_len^(0+384),w
  3413  043C  1C03               	skipc
  3414  043D  2C40               	goto	l4344
  3415                           
  3416                           ;usb_device_cdc.c: 883: byte_to_send = sizeof(cdc_data_tx);
  3417  043E  3040               	movlw	64
  3418  043F  2C42               	goto	L1
  3419  0440                     l4344:	
  3420                           
  3421                           ;usb_device_cdc.c: 884: else
  3422                           ;usb_device_cdc.c: 885: byte_to_send = cdc_tx_len;
  3423  0440  0023               	movlb	3	; select bank3
  3424  0441  085B               	movf	_cdc_tx_len^(0+384),w
  3425  0442                     L1:	
  3426  0442  0022               	movlb	2	; select bank2
  3427  0443  00EB               	movwf	??_CDCTxService^(0+256)
  3428  0444  086B               	movf	??_CDCTxService^(0+256),w
  3429  0445  00ED               	movwf	CDCTxService@byte_to_send^(0+256)
  3430                           
  3431                           ;usb_device_cdc.c: 890: cdc_tx_len = cdc_tx_len - byte_to_send;
  3432  0446  036D               	decf	CDCTxService@byte_to_send^(0+256),w
  3433  0447  3AFF               	xorlw	255
  3434  0448  0023               	movlb	3	; select bank3
  3435  0449  075B               	addwf	_cdc_tx_len^(0+384),w
  3436  044A  0022               	movlb	2	; select bank2
  3437  044B  00EB               	movwf	??_CDCTxService^(0+256)
  3438  044C  086B               	movf	??_CDCTxService^(0+256),w
  3439  044D  0023               	movlb	3	; select bank3
  3440  044E  00DB               	movwf	_cdc_tx_len^(0+384)
  3441                           
  3442                           ;usb_device_cdc.c: 892: pCDCDst.bRam = (uint8_t*)&cdc_data_tx;
  3443  044F  30A0               	movlw	160
  3444  0450  0022               	movlb	2	; select bank2
  3445  0451  00EB               	movwf	??_CDCTxService^(0+256)
  3446  0452  086B               	movf	??_CDCTxService^(0+256),w
  3447  0453  0023               	movlb	3	; select bank3
  3448  0454  00CA               	movwf	_pCDCDst^(0+384)
  3449                           
  3450                           ;usb_device_cdc.c: 894: i = byte_to_send;
  3451  0455  0022               	movlb	2	; select bank2
  3452  0456  086D               	movf	CDCTxService@byte_to_send^(0+256),w
  3453  0457  00EB               	movwf	??_CDCTxService^(0+256)
  3454  0458  086B               	movf	??_CDCTxService^(0+256),w
  3455  0459  00EC               	movwf	CDCTxService@i^(0+256)
  3456                           
  3457                           ;usb_device_cdc.c: 895: if(cdc_mem_type == 0x00)
  3458  045A  0023               	movlb	3	; select bank3
  3459  045B  0858               	movf	_cdc_mem_type^(0+384),w
  3460  045C  1903               	btfsc	3,2
  3461  045D  2C7C               	goto	l4364
  3462  045E  2C9E               	goto	l4374
  3463  045F                     l4356:	
  3464                           ;usb_device_cdc.c: 896: {
  3465                           ;usb_device_cdc.c: 897: while(i)
  3466                           
  3467                           
  3468                           ;usb_device_cdc.c: 898: {
  3469                           ;usb_device_cdc.c: 899: *pCDCDst.bRam = *pCDCSrc.bRom;
  3470  045F  0023               	movlb	3	; select bank3
  3471  0460  084C               	movf	_pCDCSrc^(0+384),w
  3472  0461  0086               	movwf	6
  3473  0462  3002               	movlw	2	; select bank4/5
  3474  0463  0087               	movwf	7
  3475  0464  0801               	movf	1,w
  3476  0465  0022               	movlb	2	; select bank2
  3477  0466  00EB               	movwf	??_CDCTxService^(0+256)
  3478  0467  0023               	movlb	3	; select bank3
  3479  0468  084A               	movf	_pCDCDst^(0+384),w
  3480  0469  0086               	movwf	6
  3481  046A  0187               	clrf	7
  3482  046B  0022               	movlb	2	; select bank2
  3483  046C  086B               	movf	??_CDCTxService^(0+256),w
  3484  046D  0081               	movwf	1
  3485                           
  3486                           ;usb_device_cdc.c: 900: pCDCDst.bRam++;
  3487  046E  3001               	movlw	1
  3488  046F  00EB               	movwf	??_CDCTxService^(0+256)
  3489  0470  086B               	movf	??_CDCTxService^(0+256),w
  3490  0471  0023               	movlb	3	; select bank3
  3491  0472  07CA               	addwf	_pCDCDst^(0+384),f
  3492                           
  3493                           ;usb_device_cdc.c: 901: pCDCSrc.bRom++;
  3494  0473  3001               	movlw	1
  3495  0474  0022               	movlb	2	; select bank2
  3496  0475  00EB               	movwf	??_CDCTxService^(0+256)
  3497  0476  086B               	movf	??_CDCTxService^(0+256),w
  3498  0477  0023               	movlb	3	; select bank3
  3499  0478  07CC               	addwf	_pCDCSrc^(0+384),f
  3500                           
  3501                           ;usb_device_cdc.c: 902: i--;
  3502  0479  3001               	movlw	1
  3503  047A  0022               	movlb	2	; select bank2
  3504  047B  02EC               	subwf	CDCTxService@i^(0+256),f
  3505  047C                     l4364:	
  3506  047C  0022               	movlb	2	; select bank2
  3507  047D  086C               	movf	CDCTxService@i^(0+256),w
  3508  047E  1903               	btfsc	3,2
  3509  047F  2CA2               	goto	l4376
  3510  0480  2C5F               	goto	l4356
  3511  0481                     l4366:	
  3512                           ;usb_device_cdc.c: 905: else
  3513                           ;usb_device_cdc.c: 906: {
  3514                           ;usb_device_cdc.c: 907: while(i)
  3515                           
  3516                           ;usb_device_cdc.c: 903: }
  3517                           ;usb_device_cdc.c: 904: }
  3518                           
  3519                           
  3520                           ;usb_device_cdc.c: 908: {
  3521                           ;usb_device_cdc.c: 909: *pCDCDst.bRam = *pCDCSrc.bRam;
  3522  0481  0023               	movlb	3	; select bank3
  3523  0482  084C               	movf	_pCDCSrc^(0+384),w
  3524  0483  0086               	movwf	6
  3525  0484  3002               	movlw	2	; select bank4/5
  3526  0485  0087               	movwf	7
  3527  0486  0801               	movf	1,w
  3528  0487  0022               	movlb	2	; select bank2
  3529  0488  00EB               	movwf	??_CDCTxService^(0+256)
  3530  0489  0023               	movlb	3	; select bank3
  3531  048A  084A               	movf	_pCDCDst^(0+384),w
  3532  048B  0086               	movwf	6
  3533  048C  0187               	clrf	7
  3534  048D  0022               	movlb	2	; select bank2
  3535  048E  086B               	movf	??_CDCTxService^(0+256),w
  3536  048F  0081               	movwf	1
  3537                           
  3538                           ;usb_device_cdc.c: 910: pCDCDst.bRam++;
  3539  0490  3001               	movlw	1
  3540  0491  00EB               	movwf	??_CDCTxService^(0+256)
  3541  0492  086B               	movf	??_CDCTxService^(0+256),w
  3542  0493  0023               	movlb	3	; select bank3
  3543  0494  07CA               	addwf	_pCDCDst^(0+384),f
  3544                           
  3545                           ;usb_device_cdc.c: 911: pCDCSrc.bRam++;
  3546  0495  3001               	movlw	1
  3547  0496  0022               	movlb	2	; select bank2
  3548  0497  00EB               	movwf	??_CDCTxService^(0+256)
  3549  0498  086B               	movf	??_CDCTxService^(0+256),w
  3550  0499  0023               	movlb	3	; select bank3
  3551  049A  07CC               	addwf	_pCDCSrc^(0+384),f
  3552                           
  3553                           ;usb_device_cdc.c: 912: i--;
  3554  049B  3001               	movlw	1
  3555  049C  0022               	movlb	2	; select bank2
  3556  049D  02EC               	subwf	CDCTxService@i^(0+256),f
  3557  049E                     l4374:	
  3558  049E  0022               	movlb	2	; select bank2
  3559  049F  086C               	movf	CDCTxService@i^(0+256),w
  3560  04A0  1D03               	btfss	3,2
  3561  04A1  2C81               	goto	l4366
  3562  04A2                     l4376:	
  3563                           
  3564                           ;usb_device_cdc.c: 913: }
  3565                           ;usb_device_cdc.c: 914: }
  3566                           ;usb_device_cdc.c: 920: if(cdc_tx_len == 0)
  3567  04A2  0023               	movlb	3	; select bank3
  3568  04A3  085B               	movf	_cdc_tx_len^(0+384),w
  3569  04A4  1D03               	btfss	3,2
  3570  04A5  2CB3               	goto	l4384
  3571                           
  3572                           ;usb_device_cdc.c: 921: {
  3573                           ;usb_device_cdc.c: 922: if(byte_to_send == 64)
  3574  04A6  3040               	movlw	64
  3575  04A7  0022               	movlb	2	; select bank2
  3576  04A8  066D               	xorwf	CDCTxService@byte_to_send^(0+256),w
  3577  04A9  1D03               	btfss	3,2
  3578  04AA  2CAD               	goto	l4382
  3579                           
  3580                           ;usb_device_cdc.c: 923: cdc_trf_state = 2;
  3581  04AB  3002               	movlw	2
  3582  04AC  2CAF               	goto	L2
  3583  04AD                     l4382:	
  3584                           
  3585                           ;usb_device_cdc.c: 924: else
  3586                           ;usb_device_cdc.c: 925: cdc_trf_state = 3;
  3587  04AD  3003               	movlw	3
  3588  04AE  0022               	movlb	2	; select bank2
  3589  04AF                     L2:	
  3590  04AF  00EB               	movwf	??_CDCTxService^(0+256)
  3591  04B0  086B               	movf	??_CDCTxService^(0+256),w
  3592  04B1  0023               	movlb	3	; select bank3
  3593  04B2  00DA               	movwf	_cdc_trf_state^(0+384)
  3594  04B3                     l4384:	
  3595                           
  3596                           ;usb_device_cdc.c: 926: }
  3597                           ;usb_device_cdc.c: 927: CDCDataInHandle = USBTransferOnePacket(2,1,(uint8_t*)&cdc_data_t
      +                          x,byte_to_send);
  3598  04B3  0022               	movlb	2	; select bank2
  3599  04B4  01E0               	clrf	USBTransferOnePacket@dir^(0+256)
  3600  04B5  0AE0               	incf	USBTransferOnePacket@dir^(0+256),f
  3601  04B6  30A0               	movlw	160
  3602  04B7  00E1               	movwf	USBTransferOnePacket@data^(0+256)
  3603  04B8  3000               	movlw	0
  3604  04B9  00E2               	movwf	(USBTransferOnePacket@data+1)^(0+256)
  3605  04BA  086D               	movf	CDCTxService@byte_to_send^(0+256),w
  3606  04BB  00EB               	movwf	??_CDCTxService^(0+256)
  3607  04BC  086B               	movf	??_CDCTxService^(0+256),w
  3608  04BD  00E3               	movwf	USBTransferOnePacket@len^(0+256)
  3609  04BE  3002               	movlw	2
  3610  04BF  318E  265C         	fcall	_USBTransferOnePacket
  3611  04C1  0022               	movlb	2	; select bank2
  3612  04C2  0861               	movf	(?_USBTransferOnePacket+1)^(0+256),w
  3613  04C3  0023               	movlb	3	; select bank3
  3614  04C4  00C7               	movwf	(_CDCDataInHandle+1)^(0+384)
  3615  04C5  0022               	movlb	2	; select bank2
  3616  04C6  0860               	movf	?_USBTransferOnePacket^(0+256),w
  3617  04C7  0023               	movlb	3	; select bank3
  3618  04C8  00C6               	movwf	_CDCDataInHandle^(0+384)
  3619  04C9                     l4386:	
  3620                           
  3621                           ;usb_device_cdc.c: 929: }
  3622                           ;usb_device_cdc.c: 931: {PIE2bits.USBIE = 1;};
  3623  04C9  0021               	movlb	1	; select bank1
  3624  04CA  1512               	bsf	18,2	;volatile
  3625  04CB  0008               	return
  3626  04CC                     __end_of_CDCTxService:	
  3627                           
  3628                           	psect	text7
  3629  0940                     __ptext7:	
  3630 ;; *************** function _CDCInitEP *****************
  3631 ;; Defined at:
  3632 ;;		line 294 in file "../lib/usb/src/usb_device_cdc.c"
  3633 ;; Parameters:    Size  Location     Type
  3634 ;;		None
  3635 ;; Auto vars:     Size  Location     Type
  3636 ;;		None
  3637 ;; Return value:  Size  Location     Type
  3638 ;;                  1    wreg      void 
  3639 ;; Registers used:
  3640 ;;		wreg, fsr1l, fsr1h, status,2, status,0, pclath, cstack
  3641 ;; Tracked objects:
  3642 ;;		On entry : 0/0
  3643 ;;		On exit  : 0/0
  3644 ;;		Unchanged: 0/0
  3645 ;; Data sizes:     COMMON   BANK0   BANK1   BANK2   BANK3   BANK4   BANK5   BANK6   BANK7   BANK8   BANK9  BANK10  BANK1
      +1  BANK12
  3646 ;;      Params:         0       0       0       0       0       0       0       0       0       0       0       0       
      +0       0
  3647 ;;      Locals:         0       0       0       0       0       0       0       0       0       0       0       0       
      +0       0
  3648 ;;      Temps:          0       0       0       1       0       0       0       0       0       0       0       0       
      +0       0
  3649 ;;      Totals:         0       0       0       1       0       0       0       0       0       0       0       0       
      +0       0
  3650 ;;Total ram usage:        1 bytes
  3651 ;; Hardware stack levels used:    1
  3652 ;; Hardware stack levels required when called:   12
  3653 ;; This function calls:
  3654 ;;		_USBEnableEndpoint
  3655 ;;		_USBTransferOnePacket
  3656 ;; This function is called by:
  3657 ;;		_main
  3658 ;; This function uses a non-reentrant model
  3659 ;;
  3660                           
  3661                           
  3662                           ;psect for function _CDCInitEP
  3663  0940                     _CDCInitEP:	
  3664                           
  3665                           ;usb_device_cdc.c: 297: line_coding.dwDTERate = 19200;
  3666                           
  3667                           ;incstack = 0
  3668                           ; Regs used in _CDCInitEP: [wreg+fsr1l+fsr1h+status,2+status,0+pclath+cstack]
  3669  0940  3000               	movlw	0
  3670  0941  0023               	movlb	3	; select bank3
  3671  0942  00E3               	movwf	(_line_coding+3)^(0+384)
  3672  0943  3000               	movlw	0
  3673  0944  00E2               	movwf	(_line_coding+2)^(0+384)
  3674  0945  304B               	movlw	75
  3675  0946  00E1               	movwf	(_line_coding+1)^(0+384)
  3676  0947  3000               	movlw	0
  3677  0948  00E0               	movwf	_line_coding^(0+384)
  3678                           
  3679                           ;usb_device_cdc.c: 298: line_coding.bCharFormat = 0x00;
  3680  0949  01E4               	clrf	(_line_coding^(0+384)+4)
  3681                           
  3682                           ;usb_device_cdc.c: 299: line_coding.bParityType = 0x00;
  3683  094A  01E5               	clrf	(_line_coding^(0+384)+5)
  3684                           
  3685                           ;usb_device_cdc.c: 300: line_coding.bDataBits = 0x08;
  3686  094B  3008               	movlw	8
  3687  094C  0022               	movlb	2	; select bank2
  3688  094D  00ED               	movwf	??_CDCInitEP^(0+256)
  3689  094E  086D               	movf	??_CDCInitEP^(0+256),w
  3690  094F  0023               	movlb	3	; select bank3
  3691  0950  00E6               	movwf	(_line_coding^(0+384)+6)
  3692                           
  3693                           ;usb_device_cdc.c: 302: cdc_rx_len = 0;
  3694  0951  01D9               	clrf	_cdc_rx_len^(0+384)
  3695                           
  3696                           ;usb_device_cdc.c: 315: USBEnableEndpoint(1,0x02|0x10|0x08);
  3697  0952  301A               	movlw	26
  3698  0953  0022               	movlb	2	; select bank2
  3699  0954  00ED               	movwf	??_CDCInitEP^(0+256)
  3700  0955  086D               	movf	??_CDCInitEP^(0+256),w
  3701  0956  00E7               	movwf	USBEnableEndpoint@options^(0+256)
  3702  0957  3001               	movlw	1
  3703  0958  3188  2052  3189   	fcall	_USBEnableEndpoint
  3704                           
  3705                           ;usb_device_cdc.c: 316: USBEnableEndpoint(2,0x02|0x04|0x10|0x08);
  3706  095B  301E               	movlw	30
  3707  095C  0022               	movlb	2	; select bank2
  3708  095D  00ED               	movwf	??_CDCInitEP^(0+256)
  3709  095E  086D               	movf	??_CDCInitEP^(0+256),w
  3710  095F  00E7               	movwf	USBEnableEndpoint@options^(0+256)
  3711  0960  3002               	movlw	2
  3712  0961  3188  2052  3189   	fcall	_USBEnableEndpoint
  3713                           
  3714                           ;usb_device_cdc.c: 318: CDCDataOutHandle = USBTransferOnePacket(2,0,(uint8_t*)&cdc_data_
      +                          rx,sizeof(cdc_data_rx));
  3715  0964  0022               	movlb	2	; select bank2
  3716  0965  01E0               	clrf	USBTransferOnePacket@dir^(0+256)
  3717  0966  3020               	movlw	32
  3718  0967  00E1               	movwf	USBTransferOnePacket@data^(0+256)
  3719  0968  3001               	movlw	1
  3720  0969  00E2               	movwf	(USBTransferOnePacket@data+1)^(0+256)
  3721  096A  3040               	movlw	64
  3722  096B  00ED               	movwf	??_CDCInitEP^(0+256)
  3723  096C  086D               	movf	??_CDCInitEP^(0+256),w
  3724  096D  00E3               	movwf	USBTransferOnePacket@len^(0+256)
  3725  096E  3002               	movlw	2
  3726  096F  318E  265C         	fcall	_USBTransferOnePacket
  3727  0971  0022               	movlb	2	; select bank2
  3728  0972  0861               	movf	(?_USBTransferOnePacket+1)^(0+256),w
  3729  0973  0023               	movlb	3	; select bank3
  3730  0974  00C9               	movwf	(_CDCDataOutHandle+1)^(0+384)
  3731  0975  0022               	movlb	2	; select bank2
  3732  0976  0860               	movf	?_USBTransferOnePacket^(0+256),w
  3733  0977  0023               	movlb	3	; select bank3
  3734  0978  00C8               	movwf	_CDCDataOutHandle^(0+384)
  3735                           
  3736                           ;usb_device_cdc.c: 319: CDCDataInHandle = (0);
  3737  0979  01C6               	clrf	_CDCDataInHandle^(0+384)
  3738  097A  01C7               	clrf	(_CDCDataInHandle+1)^(0+384)
  3739                           
  3740                           ;usb_device_cdc.c: 346: cdc_trf_state = 0;
  3741  097B  01DA               	clrf	_cdc_trf_state^(0+384)
  3742  097C  0008               	return
  3743  097D                     __end_of_CDCInitEP:	
  3744                           
  3745                           	psect	text8
  3746  0E5C                     __ptext8:	
  3747 ;; *************** function _USBTransferOnePacket *****************
  3748 ;; Defined at:
  3749 ;;		line 995 in file "../lib/usb/src/usb_device.c"
  3750 ;; Parameters:    Size  Location     Type
  3751 ;;  ep              1    wreg     unsigned char 
  3752 ;;  dir             1    0[BANK2 ] unsigned char 
  3753 ;;  data            2    1[BANK2 ] PTR unsigned char 
  3754 ;;		 -> cdc_data_tx(64), cdc_data_rx(64), NULL(0), 
  3755 ;;  len             1    3[BANK2 ] unsigned char 
  3756 ;; Auto vars:     Size  Location     Type
  3757 ;;  ep              1    8[BANK2 ] unsigned char 
  3758 ;;  handle          2    9[BANK2 ] PTR volatile struct __BD
  3759 ;;		 -> RAM(4096), NULL(0), BDT(48), 
  3760 ;; Return value:  Size  Location     Type
  3761 ;;                  2    0[BANK2 ] PTR void 
  3762 ;; Registers used:
  3763 ;;		wreg, fsr1l, fsr1h, status,2, status,0
  3764 ;; Tracked objects:
  3765 ;;		On entry : 0/0
  3766 ;;		On exit  : 0/0
  3767 ;;		Unchanged: 0/0
  3768 ;; Data sizes:     COMMON   BANK0   BANK1   BANK2   BANK3   BANK4   BANK5   BANK6   BANK7   BANK8   BANK9  BANK10  BANK1
      +1  BANK12
  3769 ;;      Params:         0       0       0       4       0       0       0       0       0       0       0       0       
      +0       0
  3770 ;;      Locals:         0       0       0       3       0       0       0       0       0       0       0       0       
      +0       0
  3771 ;;      Temps:          0       0       0       4       0       0       0       0       0       0       0       0       
      +0       0
  3772 ;;      Totals:         0       0       0      11       0       0       0       0       0       0       0       0       
      +0       0
  3773 ;;Total ram usage:       11 bytes
  3774 ;; Hardware stack levels used:    1
  3775 ;; Hardware stack levels required when called:   10
  3776 ;; This function calls:
  3777 ;;		Nothing
  3778 ;; This function is called by:
  3779 ;;		_CDCInitEP
  3780 ;;		_getsUSBUSART
  3781 ;;		_CDCTxService
  3782 ;;		_USBCDCEventHandler
  3783 ;; This function uses a non-reentrant model
  3784 ;;
  3785                           
  3786                           
  3787                           ;psect for function _USBTransferOnePacket
  3788  0E5C                     _USBTransferOnePacket:	
  3789                           
  3790                           ;incstack = 0
  3791                           ; Regs used in _USBTransferOnePacket: [wreg+fsr1l+fsr1h+status,2+status,0]
  3792                           ;USBTransferOnePacket@ep stored from wreg
  3793  0E5C  0022               	movlb	2	; select bank2
  3794  0E5D  00E8               	movwf	USBTransferOnePacket@ep^(0+256)
  3795                           
  3796                           ;usb_device.c: 997: volatile BDT_ENTRY* handle;
  3797                           ;usb_device.c: 1000: if(dir != 0)
  3798  0E5E  0860               	movf	USBTransferOnePacket@dir^(0+256),w
  3799  0E5F  1903               	btfsc	3,2
  3800  0E60  2E6A               	goto	l4126
  3801                           
  3802                           ;usb_device.c: 1001: {
  3803                           ;usb_device.c: 1003: handle = pBDTEntryIn[ep];
  3804  0E61  3568               	lslf	USBTransferOnePacket@ep^(0+256),w
  3805  0E62  3EA7               	addlw	(low (_pBDTEntryIn| (0+256)))& (0+255)
  3806  0E63  0086               	movwf	6
  3807  0E64  3001               	movlw	1	; select bank3/4
  3808  0E65  0087               	movwf	7
  3809  0E66  3F40               	moviw [0]fsr1
  3810  0E67  00E9               	movwf	USBTransferOnePacket@handle^(0+256)
  3811  0E68  3F41               	moviw [1]fsr1
  3812  0E69  2E72               	goto	L3
  3813  0E6A                     l4126:	
  3814                           ;usb_device.c: 1004: }
  3815                           
  3816                           
  3817                           ;usb_device.c: 1005: else
  3818                           ;usb_device.c: 1006: {
  3819                           ;usb_device.c: 1008: handle = pBDTEntryOut[ep];
  3820  0E6A  3568               	lslf	USBTransferOnePacket@ep^(0+256),w
  3821  0E6B  3EAD               	addlw	(low (_pBDTEntryOut| (0+256)))& (0+255)
  3822  0E6C  0086               	movwf	6
  3823  0E6D  3001               	movlw	1	; select bank3/4
  3824  0E6E  0087               	movwf	7
  3825  0E6F  3F40               	moviw [0]fsr1
  3826  0E70  00E9               	movwf	USBTransferOnePacket@handle^(0+256)
  3827  0E71  3F41               	moviw [1]fsr1
  3828  0E72                     L3:	
  3829  0E72  00EA               	movwf	(USBTransferOnePacket@handle+1)^(0+256)
  3830                           
  3831                           ;usb_device.c: 1009: }
  3832                           ;usb_device.c: 1013: if(handle == 0)
  3833  0E73  0869               	movf	USBTransferOnePacket@handle^(0+256),w
  3834  0E74  046A               	iorwf	(USBTransferOnePacket@handle+1)^(0+256),w
  3835  0E75  1D03               	btfss	3,2
  3836  0E76  2E7A               	goto	l4134
  3837                           
  3838                           ;usb_device.c: 1014: {
  3839                           ;usb_device.c: 1015: return 0;
  3840  0E77  01E0               	clrf	?_USBTransferOnePacket^(0+256)
  3841  0E78  01E1               	clrf	(?_USBTransferOnePacket+1)^(0+256)
  3842  0E79  0008               	return
  3843  0E7A                     l4134:	
  3844                           
  3845                           ;usb_device.c: 1016: }
  3846                           ;usb_device.c: 1029: handle->ADR = (((uint16_t)(data)) & 0x7FFF);
  3847  0E7A  30FF               	movlw	255
  3848  0E7B  0561               	andwf	USBTransferOnePacket@data^(0+256),w
  3849  0E7C  00E4               	movwf	??_USBTransferOnePacket^(0+256)
  3850  0E7D  307F               	movlw	127
  3851  0E7E  0562               	andwf	(USBTransferOnePacket@data+1)^(0+256),w
  3852  0E7F  00E5               	movwf	(??_USBTransferOnePacket+1)^(0+256)
  3853  0E80  0869               	movf	USBTransferOnePacket@handle^(0+256),w
  3854  0E81  0086               	movwf	6
  3855  0E82  086A               	movf	(USBTransferOnePacket@handle+1)^(0+256),w
  3856  0E83  0087               	movwf	7
  3857  0E84  3142               	addfsr 1,2
  3858  0E85  0864               	movf	??_USBTransferOnePacket^(0+256),w
  3859  0E86  3FC0               	movwi [0]fsr1
  3860  0E87  0865               	movf	(??_USBTransferOnePacket^(0+256)+1),w
  3861  0E88  3FC1               	movwi [1]fsr1
  3862                           
  3863                           ;usb_device.c: 1030: handle->CNT = len;
  3864  0E89  0869               	movf	USBTransferOnePacket@handle^(0+256),w
  3865  0E8A  3E01               	addlw	1
  3866  0E8B  00E4               	movwf	??_USBTransferOnePacket^(0+256)
  3867  0E8C  3000               	movlw	0
  3868  0E8D  3D6A               	addwfc	(USBTransferOnePacket@handle+1)^(0+256),w
  3869  0E8E  00E5               	movwf	(??_USBTransferOnePacket+1)^(0+256)
  3870  0E8F  0864               	movf	??_USBTransferOnePacket^(0+256),w
  3871  0E90  0086               	movwf	6
  3872  0E91  0865               	movf	(??_USBTransferOnePacket+1)^(0+256),w
  3873  0E92  0087               	movwf	7
  3874  0E93  0863               	movf	USBTransferOnePacket@len^(0+256),w
  3875  0E94  0081               	movwf	1
  3876                           
  3877                           ;usb_device.c: 1031: handle->STAT.Val &= 0x40;
  3878  0E95  3040               	movlw	64
  3879  0E96  00E4               	movwf	??_USBTransferOnePacket^(0+256)
  3880  0E97  0869               	movf	USBTransferOnePacket@handle^(0+256),w
  3881  0E98  0086               	movwf	6
  3882  0E99  086A               	movf	(USBTransferOnePacket@handle+1)^(0+256),w
  3883  0E9A  0087               	movwf	7
  3884  0E9B  0864               	movf	??_USBTransferOnePacket^(0+256),w
  3885  0E9C  0581               	andwf	1,f
  3886                           
  3887                           ;usb_device.c: 1032: handle->STAT.Val |= (0x08 & 0x08);
  3888  0E9D  0869               	movf	USBTransferOnePacket@handle^(0+256),w
  3889  0E9E  0086               	movwf	6
  3890  0E9F  086A               	movf	(USBTransferOnePacket@handle+1)^(0+256),w
  3891  0EA0  0087               	movwf	7
  3892  0EA1  1581               	bsf	1,3
  3893                           
  3894                           ;usb_device.c: 1033: handle->STAT.Val |= 0x80;
  3895  0EA2  0869               	movf	USBTransferOnePacket@handle^(0+256),w
  3896  0EA3  0086               	movwf	6
  3897  0EA4  086A               	movf	(USBTransferOnePacket@handle+1)^(0+256),w
  3898  0EA5  0087               	movwf	7
  3899  0EA6  1781               	bsf	1,7
  3900                           
  3901                           ;usb_device.c: 1036: if(dir != 0)
  3902  0EA7  0860               	movf	USBTransferOnePacket@dir^(0+256),w
  3903  0EA8  1903               	btfsc	3,2
  3904  0EA9  2EC3               	goto	l4144
  3905                           
  3906                           ;usb_device.c: 1037: {
  3907                           ;usb_device.c: 1039: pBDTEntryIn[ep] = (BDT_ENTRY*)(((uintptr_t)pBDTEntryIn[ep]) ^ 0x000
      +                          4);
  3908  0EAA  3568               	lslf	USBTransferOnePacket@ep^(0+256),w
  3909  0EAB  3EA7               	addlw	(low (_pBDTEntryIn| (0+256)))& (0+255)
  3910  0EAC  0086               	movwf	6
  3911  0EAD  3001               	movlw	1	; select bank3/4
  3912  0EAE  0087               	movwf	7
  3913  0EAF  3F40               	moviw [0]fsr1
  3914  0EB0  00E4               	movwf	??_USBTransferOnePacket^(0+256)
  3915  0EB1  3F41               	moviw [1]fsr1
  3916  0EB2  00E5               	movwf	(??_USBTransferOnePacket^(0+256)+1)
  3917  0EB3  3004               	movlw	4
  3918  0EB4  0664               	xorwf	??_USBTransferOnePacket^(0+256),w
  3919  0EB5  00E6               	movwf	(??_USBTransferOnePacket+2)^(0+256)
  3920  0EB6  3000               	movlw	0
  3921  0EB7  0665               	xorwf	(??_USBTransferOnePacket+1)^(0+256),w
  3922  0EB8  00E7               	movwf	(??_USBTransferOnePacket+3)^(0+256)
  3923  0EB9  3568               	lslf	USBTransferOnePacket@ep^(0+256),w
  3924  0EBA  3EA7               	addlw	(low (_pBDTEntryIn| (0+256)))& (0+255)
  3925  0EBB  0086               	movwf	6
  3926  0EBC  3001               	movlw	1	; select bank3/4
  3927  0EBD  0087               	movwf	7
  3928  0EBE  0866               	movf	(??_USBTransferOnePacket+2)^(0+256),w
  3929  0EBF  3FC0               	movwi [0]fsr1
  3930  0EC0  0867               	movf	(??_USBTransferOnePacket+3)^(0+256),w
  3931  0EC1  3FC1               	movwi [1]fsr1
  3932                           
  3933                           ;usb_device.c: 1040: }
  3934  0EC2  2EDB               	goto	l4146
  3935  0EC3                     l4144:	
  3936                           
  3937                           ;usb_device.c: 1041: else
  3938                           ;usb_device.c: 1042: {
  3939                           ;usb_device.c: 1044: pBDTEntryOut[ep] = (BDT_ENTRY*)(((uintptr_t)pBDTEntryOut[ep]) ^ 0x0
      +                          004);
  3940  0EC3  3568               	lslf	USBTransferOnePacket@ep^(0+256),w
  3941  0EC4  3EAD               	addlw	(low (_pBDTEntryOut| (0+256)))& (0+255)
  3942  0EC5  0086               	movwf	6
  3943  0EC6  3001               	movlw	1	; select bank3/4
  3944  0EC7  0087               	movwf	7
  3945  0EC8  3F40               	moviw [0]fsr1
  3946  0EC9  00E4               	movwf	??_USBTransferOnePacket^(0+256)
  3947  0ECA  3F41               	moviw [1]fsr1
  3948  0ECB  00E5               	movwf	(??_USBTransferOnePacket^(0+256)+1)
  3949  0ECC  3004               	movlw	4
  3950  0ECD  0664               	xorwf	??_USBTransferOnePacket^(0+256),w
  3951  0ECE  00E6               	movwf	(??_USBTransferOnePacket+2)^(0+256)
  3952  0ECF  3000               	movlw	0
  3953  0ED0  0665               	xorwf	(??_USBTransferOnePacket+1)^(0+256),w
  3954  0ED1  00E7               	movwf	(??_USBTransferOnePacket+3)^(0+256)
  3955  0ED2  3568               	lslf	USBTransferOnePacket@ep^(0+256),w
  3956  0ED3  3EAD               	addlw	(low (_pBDTEntryOut| (0+256)))& (0+255)
  3957  0ED4  0086               	movwf	6
  3958  0ED5  3001               	movlw	1	; select bank3/4
  3959  0ED6  0087               	movwf	7
  3960  0ED7  0866               	movf	(??_USBTransferOnePacket+2)^(0+256),w
  3961  0ED8  3FC0               	movwi [0]fsr1
  3962  0ED9  0867               	movf	(??_USBTransferOnePacket+3)^(0+256),w
  3963  0EDA  3FC1               	movwi [1]fsr1
  3964  0EDB                     l4146:	
  3965                           
  3966                           ;usb_device.c: 1045: }
  3967                           ;usb_device.c: 1046: return (void*)handle;
  3968  0EDB  086A               	movf	(USBTransferOnePacket@handle+1)^(0+256),w
  3969  0EDC  00E1               	movwf	(?_USBTransferOnePacket+1)^(0+256)
  3970  0EDD  0869               	movf	USBTransferOnePacket@handle^(0+256),w
  3971  0EDE  00E0               	movwf	?_USBTransferOnePacket^(0+256)
  3972  0EDF  0008               	return
  3973  0EE0                     __end_of_USBTransferOnePacket:	
  3974                           
  3975                           	psect	text9
  3976  0852                     __ptext9:	
  3977 ;; *************** function _USBEnableEndpoint *****************
  3978 ;; Defined at:
  3979 ;;		line 878 in file "../lib/usb/src/usb_device.c"
  3980 ;; Parameters:    Size  Location     Type
  3981 ;;  ep              1    wreg     unsigned char 
  3982 ;;  options         1    7[BANK2 ] unsigned char 
  3983 ;; Auto vars:     Size  Location     Type
  3984 ;;  ep              1   12[BANK2 ] unsigned char 
  3985 ;;  p               2   10[BANK2 ] PTR unsigned char 
  3986 ;;		 -> UEP0(1), 
  3987 ;; Return value:  Size  Location     Type
  3988 ;;                  1    wreg      void 
  3989 ;; Registers used:
  3990 ;;		wreg, fsr1l, fsr1h, status,2, status,0, pclath, cstack
  3991 ;; Tracked objects:
  3992 ;;		On entry : 0/0
  3993 ;;		On exit  : 0/0
  3994 ;;		Unchanged: 0/0
  3995 ;; Data sizes:     COMMON   BANK0   BANK1   BANK2   BANK3   BANK4   BANK5   BANK6   BANK7   BANK8   BANK9  BANK10  BANK1
      +1  BANK12
  3996 ;;      Params:         0       0       0       1       0       0       0       0       0       0       0       0       
      +0       0
  3997 ;;      Locals:         0       0       0       3       0       0       0       0       0       0       0       0       
      +0       0
  3998 ;;      Temps:          0       0       0       2       0       0       0       0       0       0       0       0       
      +0       0
  3999 ;;      Totals:         0       0       0       6       0       0       0       0       0       0       0       0       
      +0       0
  4000 ;;Total ram usage:        6 bytes
  4001 ;; Hardware stack levels used:    1
  4002 ;; Hardware stack levels required when called:   11
  4003 ;; This function calls:
  4004 ;;		_USBConfigureEndpoint
  4005 ;; This function is called by:
  4006 ;;		_CDCInitEP
  4007 ;; This function uses a non-reentrant model
  4008 ;;
  4009                           
  4010                           
  4011                           ;psect for function _USBEnableEndpoint
  4012  0852                     _USBEnableEndpoint:	
  4013                           
  4014                           ;incstack = 0
  4015                           ; Regs used in _USBEnableEndpoint: [wreg+fsr1l+fsr1h+status,2+status,0+pclath+cstack]
  4016                           ;USBEnableEndpoint@ep stored from wreg
  4017  0852  0022               	movlb	2	; select bank2
  4018  0853  00EC               	movwf	USBEnableEndpoint@ep^(0+256)
  4019                           
  4020                           ;usb_device.c: 880: unsigned char* p;
  4021                           ;usb_device.c: 884: if(options & 0x04)
  4022  0854  1D67               	btfss	USBEnableEndpoint@options^(0+256),2
  4023  0855  285B               	goto	l4114
  4024                           
  4025                           ;usb_device.c: 885: {
  4026                           ;usb_device.c: 886: USBConfigureEndpoint(ep, 0);
  4027  0856  01E0               	clrf	USBConfigureEndpoint@direction^(0+256)
  4028  0857  086C               	movf	USBEnableEndpoint@ep^(0+256),w
  4029  0858  3189  21BF  3188   	fcall	_USBConfigureEndpoint
  4030  085B                     l4114:	
  4031                           
  4032                           ;usb_device.c: 887: }
  4033                           ;usb_device.c: 888: if(options & 0x02)
  4034  085B  0022               	movlb	2	; select bank2
  4035  085C  1CE7               	btfss	USBEnableEndpoint@options^(0+256),1
  4036  085D  2863               	goto	l4118
  4037                           
  4038                           ;usb_device.c: 889: {
  4039                           ;usb_device.c: 890: USBConfigureEndpoint(ep, 1);
  4040  085E  01E0               	clrf	USBConfigureEndpoint@direction^(0+256)
  4041  085F  0AE0               	incf	USBConfigureEndpoint@direction^(0+256),f
  4042  0860  086C               	movf	USBEnableEndpoint@ep^(0+256),w
  4043  0861  3189  21BF         	fcall	_USBConfigureEndpoint
  4044  0863                     l4118:	
  4045                           
  4046                           ;usb_device.c: 891: }
  4047                           ;usb_device.c: 899: p = (unsigned char*)(&UEP0+ep);
  4048  0863  0022               	movlb	2	; select bank2
  4049  0864  086C               	movf	USBEnableEndpoint@ep^(0+256),w
  4050  0865  3E98               	addlw	152
  4051  0866  00E8               	movwf	??_USBEnableEndpoint^(0+256)
  4052  0867  01E9               	clrf	(??_USBEnableEndpoint^(0+256)+1)
  4053  0868  300E               	movlw	14
  4054  0869  3DE9               	addwfc	(??_USBEnableEndpoint^(0+256)+1),f
  4055  086A  0868               	movf	??_USBEnableEndpoint^(0+256),w
  4056  086B  00EA               	movwf	USBEnableEndpoint@p^(0+256)
  4057  086C  0869               	movf	(??_USBEnableEndpoint+1)^(0+256),w
  4058  086D  00EB               	movwf	(USBEnableEndpoint@p+1)^(0+256)
  4059                           
  4060                           ;usb_device.c: 901: *p = options;
  4061  086E  086A               	movf	USBEnableEndpoint@p^(0+256),w
  4062  086F  0086               	movwf	6
  4063  0870  086B               	movf	(USBEnableEndpoint@p+1)^(0+256),w
  4064  0871  0087               	movwf	7
  4065  0872  0867               	movf	USBEnableEndpoint@options^(0+256),w
  4066  0873  0081               	movwf	1
  4067  0874  0008               	return
  4068  0875                     __end_of_USBEnableEndpoint:	
  4069                           
  4070                           	psect	text10
  4071  09BF                     __ptext10:	
  4072 ;; *************** function _USBConfigureEndpoint *****************
  4073 ;; Defined at:
  4074 ;;		line 1543 in file "../lib/usb/src/usb_device.c"
  4075 ;; Parameters:    Size  Location     Type
  4076 ;;  EPNum           1    wreg     unsigned char 
  4077 ;;  direction       1    0[BANK2 ] unsigned char 
  4078 ;; Auto vars:     Size  Location     Type
  4079 ;;  EPNum           1    5[BANK2 ] unsigned char 
  4080 ;;  handle          1    6[BANK2 ] PTR volatile struct __BD
  4081 ;;		 -> BDT(48), 
  4082 ;; Return value:  Size  Location     Type
  4083 ;;                  1    wreg      void 
  4084 ;; Registers used:
  4085 ;;		wreg, fsr1l, fsr1h, status,2, status,0
  4086 ;; Tracked objects:
  4087 ;;		On entry : 0/0
  4088 ;;		On exit  : 0/0
  4089 ;;		Unchanged: 0/0
  4090 ;; Data sizes:     COMMON   BANK0   BANK1   BANK2   BANK3   BANK4   BANK5   BANK6   BANK7   BANK8   BANK9  BANK10  BANK1
      +1  BANK12
  4091 ;;      Params:         0       0       0       1       0       0       0       0       0       0       0       0       
      +0       0
  4092 ;;      Locals:         0       0       0       2       0       0       0       0       0       0       0       0       
      +0       0
  4093 ;;      Temps:          0       0       0       4       0       0       0       0       0       0       0       0       
      +0       0
  4094 ;;      Totals:         0       0       0       7       0       0       0       0       0       0       0       0       
      +0       0
  4095 ;;Total ram usage:        7 bytes
  4096 ;; Hardware stack levels used:    1
  4097 ;; Hardware stack levels required when called:   10
  4098 ;; This function calls:
  4099 ;;		Nothing
  4100 ;; This function is called by:
  4101 ;;		_USBEnableEndpoint
  4102 ;; This function uses a non-reentrant model
  4103 ;;
  4104                           
  4105                           
  4106                           ;psect for function _USBConfigureEndpoint
  4107  09BF                     _USBConfigureEndpoint:	
  4108                           
  4109                           ;incstack = 0
  4110                           ; Regs used in _USBConfigureEndpoint: [wreg+fsr1l+fsr1h+status,2+status,0]
  4111                           ;USBConfigureEndpoint@EPNum stored from wreg
  4112  09BF  0022               	movlb	2	; select bank2
  4113  09C0  00E5               	movwf	USBConfigureEndpoint@EPNum^(0+256)
  4114                           
  4115                           ;usb_device.c: 1545: volatile BDT_ENTRY* handle;
  4116                           ;usb_device.c: 1549: handle = (volatile BDT_ENTRY*)&BDT[0];
  4117  09C1  3020               	movlw	32
  4118  09C2  00E1               	movwf	??_USBConfigureEndpoint^(0+256)
  4119  09C3  0861               	movf	??_USBConfigureEndpoint^(0+256),w
  4120  09C4  00E6               	movwf	USBConfigureEndpoint@handle^(0+256)
  4121                           
  4122                           ;usb_device.c: 1550: handle += (4*EPNum+2*direction+0u);
  4123  09C5  0860               	movf	USBConfigureEndpoint@direction^(0+256),w
  4124  09C6  00E1               	movwf	??_USBConfigureEndpoint^(0+256)
  4125  09C7  3001               	movlw	1
  4126  09C8                     u3595:	
  4127  09C8  35E1               	lslf	??_USBConfigureEndpoint^(0+256),f
  4128  09C9  0B89               	decfsz	9,f
  4129  09CA  29C8               	goto	u3595
  4130  09CB  0865               	movf	USBConfigureEndpoint@EPNum^(0+256),w
  4131  09CC  00E2               	movwf	(??_USBConfigureEndpoint+1)^(0+256)
  4132  09CD  3001               	movlw	1
  4133  09CE                     u3605:	
  4134  09CE  35E2               	lslf	(??_USBConfigureEndpoint+1)^(0+256),f
  4135  09CF  3EFF               	addlw	-1
  4136  09D0  1D03               	skipz
  4137  09D1  29CE               	goto	u3605
  4138  09D2  3562               	lslf	(??_USBConfigureEndpoint+1)^(0+256),w
  4139  09D3  0761               	addwf	??_USBConfigureEndpoint^(0+256),w
  4140  09D4  00E3               	movwf	(??_USBConfigureEndpoint+2)^(0+256)
  4141  09D5  3001               	movlw	1
  4142  09D6                     u3615:	
  4143  09D6  35E3               	lslf	(??_USBConfigureEndpoint+2)^(0+256),f
  4144  09D7  3EFF               	addlw	-1
  4145  09D8  1D03               	skipz
  4146  09D9  29D6               	goto	u3615
  4147  09DA  3563               	lslf	(??_USBConfigureEndpoint+2)^(0+256),w
  4148  09DB  00E4               	movwf	(??_USBConfigureEndpoint+3)^(0+256)
  4149  09DC  0864               	movf	(??_USBConfigureEndpoint+3)^(0+256),w
  4150  09DD  07E6               	addwf	USBConfigureEndpoint@handle^(0+256),f
  4151                           
  4152                           ;usb_device.c: 1552: handle->STAT.UOWN = 0;
  4153  09DE  0866               	movf	USBConfigureEndpoint@handle^(0+256),w
  4154  09DF  0086               	movwf	6
  4155  09E0  0187               	clrf	7
  4156  09E1  1381               	bcf	1,7
  4157                           
  4158                           ;usb_device.c: 1557: if(direction == 0)
  4159  09E2  0860               	movf	USBConfigureEndpoint@direction^(0+256),w
  4160  09E3  1D03               	btfss	3,2
  4161  09E4  29EF               	goto	l4104
  4162                           
  4163                           ;usb_device.c: 1558: {
  4164                           ;usb_device.c: 1559: pBDTEntryOut[EPNum] = handle;
  4165  09E5  3565               	lslf	USBConfigureEndpoint@EPNum^(0+256),w
  4166  09E6  3EAD               	addlw	(low (_pBDTEntryOut| (0+256)))& (0+255)
  4167  09E7  0086               	movwf	6
  4168  09E8  3001               	movlw	1	; select bank3/4
  4169  09E9  0087               	movwf	7
  4170  09EA  0866               	movf	USBConfigureEndpoint@handle^(0+256),w
  4171  09EB  3FC0               	movwi [0]fsr1
  4172  09EC  3000               	movlw	0
  4173  09ED  3FC1               	movwi [1]fsr1
  4174                           
  4175                           ;usb_device.c: 1560: }
  4176  09EE  29F8               	goto	l4106
  4177  09EF                     l4104:	
  4178                           
  4179                           ;usb_device.c: 1561: else
  4180                           ;usb_device.c: 1562: {
  4181                           ;usb_device.c: 1563: pBDTEntryIn[EPNum] = handle;
  4182  09EF  3565               	lslf	USBConfigureEndpoint@EPNum^(0+256),w
  4183  09F0  3EA7               	addlw	(low (_pBDTEntryIn| (0+256)))& (0+255)
  4184  09F1  0086               	movwf	6
  4185  09F2  3001               	movlw	1	; select bank3/4
  4186  09F3  0087               	movwf	7
  4187  09F4  0866               	movf	USBConfigureEndpoint@handle^(0+256),w
  4188  09F5  3FC0               	movwi [0]fsr1
  4189  09F6  3000               	movlw	0
  4190  09F7  3FC1               	movwi [1]fsr1
  4191  09F8                     l4106:	
  4192                           
  4193                           ;usb_device.c: 1564: }
  4194                           ;usb_device.c: 1567: handle->STAT.DTS = 0;
  4195  09F8  0866               	movf	USBConfigureEndpoint@handle^(0+256),w
  4196  09F9  0086               	movwf	6
  4197  09FA  0187               	clrf	7
  4198  09FB  1301               	bcf	1,6
  4199                           
  4200                           ;usb_device.c: 1568: (handle+1)->STAT.DTS = 1;
  4201  09FC  0866               	movf	USBConfigureEndpoint@handle^(0+256),w
  4202  09FD  3E04               	addlw	4
  4203  09FE  0086               	movwf	6
  4204  09FF  0187               	clrf	7
  4205  0A00  1701               	bsf	1,6
  4206  0A01  0008               	return
  4207  0A02                     __end_of_USBConfigureEndpoint:	
  4208                           
  4209                           	psect	intentry
  4210  0004                     __pintentry:	
  4211 ;; *************** function _SYS_InterruptHigh *****************
  4212 ;; Defined at:
  4213 ;;		line 107 in file "system.c"
  4214 ;; Parameters:    Size  Location     Type
  4215 ;;		None
  4216 ;; Auto vars:     Size  Location     Type
  4217 ;;		None
  4218 ;; Return value:  Size  Location     Type
  4219 ;;                  1    wreg      void 
  4220 ;; Registers used:
  4221 ;;		wreg, fsr0l, fsr0h, fsr1l, fsr1h, status,2, status,0, pclath, cstack
  4222 ;; Tracked objects:
  4223 ;;		On entry : 0/0
  4224 ;;		On exit  : 0/0
  4225 ;;		Unchanged: 0/0
  4226 ;; Data sizes:     COMMON   BANK0   BANK1   BANK2   BANK3   BANK4   BANK5   BANK6   BANK7   BANK8   BANK9  BANK10  BANK1
      +1  BANK12
  4227 ;;      Params:         0       0       0       0       0       0       0       0       0       0       0       0       
      +0       0
  4228 ;;      Locals:         0       0       0       0       0       0       0       0       0       0       0       0       
      +0       0
  4229 ;;      Temps:          0       0       1       0       0       0       0       0       0       0       0       0       
      +0       0
  4230 ;;      Totals:         0       0       1       0       0       0       0       0       0       0       0       0       
      +0       0
  4231 ;;Total ram usage:        1 bytes
  4232 ;; Hardware stack levels used:    1
  4233 ;; Hardware stack levels required when called:    9
  4234 ;; This function calls:
  4235 ;;		_USBDeviceTasks
  4236 ;; This function is called by:
  4237 ;;		Interrupt level 1
  4238 ;; This function uses a non-reentrant model
  4239 ;;
  4240                           
  4241  0004                     _SYS_InterruptHigh:	
  4242                           
  4243                           ;incstack = 0
  4244                           ; Regs used in _SYS_InterruptHigh: [wreg-fsr1h+status,2+status,0+pclath+cstack]
  4245  0004  147E               	bsf	126,0	;set compiler interrupt flag (level 1)
  4246  0005  3180               	pagesel	$
  4247  0006  0020               	movlb	0	; select bank0
  4248  0007  087F               	movf	127,w
  4249  0008  0021               	movlb	1	; select bank1
  4250  0009  00EB               	movwf	??_SYS_InterruptHigh^(0+128)
  4251                           
  4252                           ;system.c: 110: USBDeviceTasks();
  4253  000A  3183  2318         	fcall	_USBDeviceTasks
  4254  000C  0021               	movlb	1	; select bank1
  4255  000D  086B               	movf	??_SYS_InterruptHigh^(0+128),w
  4256  000E  0020               	movlb	0	; select bank0
  4257  000F  00FF               	movwf	127
  4258  0010  107E               	bcf	126,0	;clear compiler interrupt flag (level 1)
  4259  0011  0009               	retfie
  4260  0012                     __end_of_SYS_InterruptHigh:	
  4261                           
  4262                           	psect	text12
  4263  0318                     __ptext12:	
  4264 ;; *************** function _USBDeviceTasks *****************
  4265 ;; Defined at:
  4266 ;;		line 477 in file "../lib/usb/src/usb_device.c"
  4267 ;; Parameters:    Size  Location     Type
  4268 ;;		None
  4269 ;; Auto vars:     Size  Location     Type
  4270 ;;  i               1   15[BANK0 ] unsigned char 
  4271 ;; Return value:  Size  Location     Type
  4272 ;;                  1    wreg      void 
  4273 ;; Registers used:
  4274 ;;		wreg, fsr0l, fsr0h, fsr1l, fsr1h, status,2, status,0, pclath, cstack
  4275 ;; Tracked objects:
  4276 ;;		On entry : 0/0
  4277 ;;		On exit  : 0/0
  4278 ;;		Unchanged: 0/0
  4279 ;; Data sizes:     COMMON   BANK0   BANK1   BANK2   BANK3   BANK4   BANK5   BANK6   BANK7   BANK8   BANK9  BANK10  BANK1
      +1  BANK12
  4280 ;;      Params:         0       0       0       0       0       0       0       0       0       0       0       0       
      +0       0
  4281 ;;      Locals:         0       1       0       0       0       0       0       0       0       0       0       0       
      +0       0
  4282 ;;      Temps:          0       0       2       0       0       0       0       0       0       0       0       0       
      +0       0
  4283 ;;      Totals:         0       1       2       0       0       0       0       0       0       0       0       0       
      +0       0
  4284 ;;Total ram usage:        3 bytes
  4285 ;; Hardware stack levels used:    1
  4286 ;; Hardware stack levels required when called:    8
  4287 ;; This function calls:
  4288 ;;		_USBCtrlEPAllowStatusStage
  4289 ;;		_USBCtrlEPService
  4290 ;;		_USBIncrement1msInternalTimers
  4291 ;;		_USBStallHandler
  4292 ;;		_USBSuspend
  4293 ;;		_USBWakeFromSuspend
  4294 ;;		_USER_USB_CALLBACK_EVENT_HANDLER
  4295 ;;		i1_USBDeviceInit
  4296 ;; This function is called by:
  4297 ;;		_SYS_InterruptHigh
  4298 ;; This function uses a non-reentrant model
  4299 ;;
  4300                           
  4301                           
  4302                           ;psect for function _USBDeviceTasks
  4303  0318                     _USBDeviceTasks:	
  4304                           
  4305                           ;usb_device.c: 479: uint8_t i;
  4306                           ;usb_device.c: 590: if(USBDeviceState == ATTACHED_STATE)
  4307                           
  4308                           ;incstack = 0
  4309                           ; Regs used in _USBDeviceTasks: [wreg-fsr1h+status,2+status,0+pclath+cstack]
  4310  0318  0021               	movlb	1	; select bank1
  4311  0319  0362               	decf	_USBDeviceState^(0+128),w	;volatile
  4312  031A  1D03               	btfss	3,2
  4313  031B  2B27               	goto	i1l3608
  4314                           
  4315                           ;usb_device.c: 591: {
  4316                           ;usb_device.c: 601: if(!UCONbits.SE0)
  4317  031C  003D               	movlb	29	; select bank29
  4318  031D  1A8E               	btfsc	14,5	;volatile
  4319  031E  2B27               	goto	i1l3608
  4320                           
  4321                           ;usb_device.c: 602: {
  4322                           ;usb_device.c: 608: {UIR = 0;};
  4323  031F  0190               	clrf	16	;volatile
  4324                           
  4325                           ;usb_device.c: 614: UIEbits.URSTIE = 1;
  4326  0320  1412               	bsf	18,0	;volatile
  4327                           
  4328                           ;usb_device.c: 615: UIEbits.IDLEIE = 1;
  4329  0321  1612               	bsf	18,4	;volatile
  4330                           
  4331                           ;usb_device.c: 616: USBDeviceState = POWERED_STATE;
  4332  0322  3002               	movlw	2
  4333  0323  0021               	movlb	1	; select bank1
  4334  0324  00E9               	movwf	??_USBDeviceTasks^(0+128)
  4335  0325  0869               	movf	??_USBDeviceTasks^(0+128),w
  4336  0326  00E2               	movwf	_USBDeviceState^(0+128)	;volatile
  4337  0327                     i1l3608:	
  4338                           
  4339                           ;usb_device.c: 617: }
  4340                           ;usb_device.c: 618: }
  4341                           ;usb_device.c: 634: if(UIRbits.ACTVIF && UIEbits.ACTVIE)
  4342  0327  003D               	movlb	29	; select bank29
  4343  0328  1910               	btfsc	16,2	;volatile
  4344  0329  1D12               	btfss	18,2	;volatile
  4345  032A  2B34               	goto	i1l3616
  4346                           
  4347                           ;usb_device.c: 635: {
  4348                           ;usb_device.c: 636: (UIR &= 0xFB);
  4349  032B  30FB               	movlw	251
  4350  032C  0021               	movlb	1	; select bank1
  4351  032D  00E9               	movwf	??_USBDeviceTasks^(0+128)
  4352  032E  0869               	movf	??_USBDeviceTasks^(0+128),w
  4353  032F  003D               	movlb	29	; select bank29
  4354  0330  0590               	andwf	16,f	;volatile
  4355                           
  4356                           ;usb_device.c: 640: USBWakeFromSuspend();
  4357  0331  3188  2032  3183   	fcall	_USBWakeFromSuspend
  4358  0334                     i1l3616:	
  4359                           
  4360                           ;usb_device.c: 642: }
  4361                           ;usb_device.c: 647: if(UCONbits.SUSPND==1)
  4362  0334  003D               	movlb	29	; select bank29
  4363  0335  1C8E               	btfss	14,1	;volatile
  4364  0336  2B3A               	goto	i1l184
  4365                           
  4366                           ;usb_device.c: 648: {
  4367                           ;usb_device.c: 649: PIR2bits.USBIF = 0;;
  4368  0337  0020               	movlb	0	; select bank0
  4369  0338  1112               	bcf	18,2	;volatile
  4370                           
  4371                           ;usb_device.c: 650: return;
  4372  0339  0008               	return
  4373  033A                     i1l184:	
  4374                           
  4375                           ;usb_device.c: 651: }
  4376                           ;usb_device.c: 663: if(UIRbits.URSTIF && UIEbits.URSTIE)
  4377  033A  1810               	btfsc	16,0	;volatile
  4378  033B  1C12               	btfss	18,0	;volatile
  4379  033C  2B4B               	goto	i1l3630
  4380                           
  4381                           ;usb_device.c: 664: {
  4382                           ;usb_device.c: 665: USBDeviceInit();
  4383  033D  3186  264C  3183   	fcall	i1_USBDeviceInit
  4384                           
  4385                           ;usb_device.c: 669: {PIE2bits.USBIE = 1;};
  4386  0340  0021               	movlb	1	; select bank1
  4387  0341  1512               	bsf	18,2	;volatile
  4388                           
  4389                           ;usb_device.c: 671: USBDeviceState = DEFAULT_STATE;
  4390  0342  3004               	movlw	4
  4391  0343  00E9               	movwf	??_USBDeviceTasks^(0+128)
  4392  0344  0869               	movf	??_USBDeviceTasks^(0+128),w
  4393  0345  00E2               	movwf	_USBDeviceState^(0+128)	;volatile
  4394                           
  4395                           ;usb_device.c: 681: (UIR &= 0xFE);
  4396  0346  30FE               	movlw	254
  4397  0347  00E9               	movwf	??_USBDeviceTasks^(0+128)
  4398  0348  0869               	movf	??_USBDeviceTasks^(0+128),w
  4399  0349  003D               	movlb	29	; select bank29
  4400  034A  0590               	andwf	16,f	;volatile
  4401  034B                     i1l3630:	
  4402                           
  4403                           ;usb_device.c: 682: }
  4404                           ;usb_device.c: 687: if(UIRbits.IDLEIF && UIEbits.IDLEIE)
  4405  034B  1A10               	btfsc	16,4	;volatile
  4406  034C  1E12               	btfss	18,4	;volatile
  4407  034D  2B51               	goto	i1l3636
  4408                           
  4409                           ;usb_device.c: 688: {
  4410                           ;usb_device.c: 694: USBSuspend();
  4411  034E  3197  27E1  3183   	fcall	_USBSuspend
  4412  0351                     i1l3636:	
  4413                           
  4414                           ;usb_device.c: 696: }
  4415                           ;usb_device.c: 708: if(UIRbits.SOFIF)
  4416  0351  003D               	movlb	29	; select bank29
  4417  0352  1F10               	btfss	16,6	;volatile
  4418  0353  2B7B               	goto	i1l3652
  4419                           
  4420                           ;usb_device.c: 709: {
  4421                           ;usb_device.c: 711: if(UIEbits.SOFIE)
  4422  0354  1F12               	btfss	18,6	;volatile
  4423  0355  2B66               	goto	i1l3642
  4424                           
  4425                           ;usb_device.c: 712: {
  4426                           ;usb_device.c: 713: USER_USB_CALLBACK_EVENT_HANDLER(EVENT_SOF,0,1);
  4427  0356  3073               	movlw	115
  4428  0357  0020               	movlb	0	; select bank0
  4429  0358  00E0               	movwf	USER_USB_CALLBACK_EVENT_HANDLER@event
  4430  0359  3000               	movlw	0
  4431  035A  00E1               	movwf	USER_USB_CALLBACK_EVENT_HANDLER@event+1
  4432  035B  3000               	movlw	0
  4433  035C  00E2               	movwf	USER_USB_CALLBACK_EVENT_HANDLER@pdata
  4434  035D  3000               	movlw	0
  4435  035E  00E3               	movwf	USER_USB_CALLBACK_EVENT_HANDLER@pdata+1
  4436  035F  3001               	movlw	1
  4437  0360  00E4               	movwf	USER_USB_CALLBACK_EVENT_HANDLER@size
  4438  0361  3000               	movlw	0
  4439  0362  00E5               	movwf	USER_USB_CALLBACK_EVENT_HANDLER@size+1
  4440  0363  3189  2108  3183   	fcall	_USER_USB_CALLBACK_EVENT_HANDLER
  4441  0366                     i1l3642:	
  4442                           
  4443                           ;usb_device.c: 714: }
  4444                           ;usb_device.c: 715: (UIR &= 0xBF);
  4445  0366  30BF               	movlw	191
  4446  0367  0021               	movlb	1	; select bank1
  4447  0368  00E9               	movwf	??_USBDeviceTasks^(0+128)
  4448  0369  0869               	movf	??_USBDeviceTasks^(0+128),w
  4449  036A  003D               	movlb	29	; select bank29
  4450  036B  0590               	andwf	16,f	;volatile
  4451                           
  4452                           ;usb_device.c: 718: USBIncrement1msInternalTimers();
  4453  036C  3197  2791  3183   	fcall	_USBIncrement1msInternalTimers
  4454                           
  4455                           ;usb_device.c: 735: if(USBStatusStageTimeoutCounter != 0u)
  4456  036F  0023               	movlb	3	; select bank3
  4457  0370  0856               	movf	_USBStatusStageTimeoutCounter^(0+384),w	;volatile
  4458  0371  1903               	btfsc	3,2
  4459  0372  2B75               	goto	i1l190
  4460                           
  4461                           ;usb_device.c: 736: {
  4462                           ;usb_device.c: 737: USBStatusStageTimeoutCounter--;
  4463  0373  3001               	movlw	1
  4464  0374  02D6               	subwf	_USBStatusStageTimeoutCounter^(0+384),f	;volatile
  4465  0375                     i1l190:	
  4466                           
  4467                           ;usb_device.c: 738: }
  4468                           ;usb_device.c: 744: if(USBStatusStageTimeoutCounter == 0)
  4469  0375  0856               	movf	_USBStatusStageTimeoutCounter^(0+384),w	;volatile
  4470  0376  1D03               	btfss	3,2
  4471  0377  2B7B               	goto	i1l3652
  4472                           
  4473                           ;usb_device.c: 745: {
  4474                           ;usb_device.c: 746: USBCtrlEPAllowStatusStage();
  4475  0378  318C  24E8  3183   	fcall	_USBCtrlEPAllowStatusStage
  4476  037B                     i1l3652:	
  4477                           
  4478                           ;usb_device.c: 747: }
  4479                           ;usb_device.c: 749: }
  4480                           ;usb_device.c: 751: if(UIRbits.STALLIF && UIEbits.STALLIE)
  4481  037B  003D               	movlb	29	; select bank29
  4482  037C  1A90               	btfsc	16,5	;volatile
  4483  037D  1E92               	btfss	18,5	;volatile
  4484  037E  2B82               	goto	i1l3658
  4485                           
  4486                           ;usb_device.c: 752: {
  4487                           ;usb_device.c: 753: USBStallHandler();
  4488  037F  3188  2075  3183   	fcall	_USBStallHandler
  4489  0382                     i1l3658:	
  4490                           
  4491                           ;usb_device.c: 754: }
  4492                           ;usb_device.c: 756: if(UIRbits.UERRIF && UIEbits.UERRIE)
  4493  0382  003D               	movlb	29	; select bank29
  4494  0383  1890               	btfsc	16,1	;volatile
  4495  0384  1C92               	btfss	18,1	;volatile
  4496  0385  2B98               	goto	i1l3666
  4497                           
  4498                           ;usb_device.c: 757: {
  4499                           ;usb_device.c: 758: USER_USB_CALLBACK_EVENT_HANDLER(EVENT_BUS_ERROR,0,1);
  4500  0386  30FF               	movlw	255
  4501  0387  0020               	movlb	0	; select bank0
  4502  0388  00E0               	movwf	USER_USB_CALLBACK_EVENT_HANDLER@event
  4503  0389  307F               	movlw	127
  4504  038A  00E1               	movwf	USER_USB_CALLBACK_EVENT_HANDLER@event+1
  4505  038B  3000               	movlw	0
  4506  038C  00E2               	movwf	USER_USB_CALLBACK_EVENT_HANDLER@pdata
  4507  038D  3000               	movlw	0
  4508  038E  00E3               	movwf	USER_USB_CALLBACK_EVENT_HANDLER@pdata+1
  4509  038F  3001               	movlw	1
  4510  0390  00E4               	movwf	USER_USB_CALLBACK_EVENT_HANDLER@size
  4511  0391  3000               	movlw	0
  4512  0392  00E5               	movwf	USER_USB_CALLBACK_EVENT_HANDLER@size+1
  4513  0393  3189  2108  3183   	fcall	_USER_USB_CALLBACK_EVENT_HANDLER
  4514                           
  4515                           ;usb_device.c: 759: {UEIR = 0;};
  4516  0396  003D               	movlb	29	; select bank29
  4517  0397  0193               	clrf	19	;volatile
  4518  0398                     i1l3666:	
  4519                           
  4520                           ;usb_device.c: 767: }
  4521                           ;usb_device.c: 774: if(USBDeviceState < DEFAULT_STATE)
  4522  0398  3004               	movlw	4
  4523  0399  0021               	movlb	1	; select bank1
  4524  039A  0262               	subwf	_USBDeviceState^(0+128),w	;volatile
  4525  039B  1803               	skipnc
  4526  039C  2BA0               	goto	i1l194
  4527                           
  4528                           ;usb_device.c: 775: {
  4529                           ;usb_device.c: 776: PIR2bits.USBIF = 0;;
  4530  039D  0020               	movlb	0	; select bank0
  4531  039E  1112               	bcf	18,2	;volatile
  4532                           
  4533                           ;usb_device.c: 777: return;
  4534  039F  0008               	return
  4535  03A0                     i1l194:	
  4536                           
  4537                           ;usb_device.c: 778: }
  4538                           ;usb_device.c: 783: if(UIEbits.TRNIE)
  4539  03A0  003D               	movlb	29	; select bank29
  4540  03A1  1D92               	btfss	18,3	;volatile
  4541  03A2  2BF9               	goto	i1l195
  4542                           
  4543                           ;usb_device.c: 784: {
  4544                           ;usb_device.c: 785: for(i = 0; i < 4u; i++)
  4545  03A3  0020               	movlb	0	; select bank0
  4546  03A4  01EF               	clrf	USBDeviceTasks@i
  4547  03A5  3004               	movlw	4
  4548  03A6  026F               	subwf	USBDeviceTasks@i,w
  4549  03A7  1803               	btfsc	3,0
  4550  03A8  2BF9               	goto	i1l195
  4551  03A9                     i1l196:	
  4552                           
  4553                           ;usb_device.c: 786: {
  4554                           ;usb_device.c: 787: if(UIRbits.TRNIF)
  4555  03A9  003D               	movlb	29	; select bank29
  4556  03AA  1D90               	btfss	16,3	;volatile
  4557  03AB  2BF9               	goto	i1l195
  4558                           
  4559                           ;usb_device.c: 788: {
  4560                           ;usb_device.c: 790: USTATcopy.Val = USTAT;
  4561  03AC  080F               	movf	15,w	;volatile
  4562  03AD  0021               	movlb	1	; select bank1
  4563  03AE  00E9               	movwf	??_USBDeviceTasks^(0+128)
  4564  03AF  0869               	movf	??_USBDeviceTasks^(0+128),w
  4565  03B0  00E5               	movwf	_USTATcopy^(0+128)	;volatile
  4566                           
  4567                           ;usb_device.c: 791: endpoint_number = USTATcopy.endpoint_number;
  4568  03B1  0C65               	rrf	_USTATcopy^(0+128),w	;volatile
  4569  03B2  00E9               	movwf	??_USBDeviceTasks^(0+128)
  4570  03B3  0CE9               	rrf	??_USBDeviceTasks^(0+128),f
  4571  03B4  0C69               	rrf	??_USBDeviceTasks^(0+128),w
  4572  03B5  390F               	andlw	15
  4573  03B6  00EA               	movwf	(??_USBDeviceTasks+1)^(0+128)
  4574  03B7  086A               	movf	(??_USBDeviceTasks+1)^(0+128),w
  4575  03B8  0023               	movlb	3	; select bank3
  4576  03B9  00DD               	movwf	_endpoint_number^(0+384)	;volatile
  4577                           
  4578                           ;usb_device.c: 793: (UIR &= 0xF7);
  4579  03BA  30F7               	movlw	247
  4580  03BB  0021               	movlb	1	; select bank1
  4581  03BC  00E9               	movwf	??_USBDeviceTasks^(0+128)
  4582  03BD  0869               	movf	??_USBDeviceTasks^(0+128),w
  4583  03BE  003D               	movlb	29	; select bank29
  4584  03BF  0590               	andwf	16,f	;volatile
  4585                           
  4586                           ;usb_device.c: 798: if(USTATcopy.direction == 0)
  4587  03C0  0021               	movlb	1	; select bank1
  4588  03C1  1965               	btfsc	_USTATcopy^(0+128),2	;volatile
  4589  03C2  2BC7               	goto	i1l3686
  4590                           
  4591                           ;usb_device.c: 799: {
  4592                           ;usb_device.c: 800: ep_data_out[endpoint_number].bits.ping_pong_state ^= 1;
  4593  03C3  0023               	movlb	3	; select bank3
  4594  03C4  085D               	movf	_endpoint_number^(0+384),w	;volatile
  4595  03C5  3EC3               	addlw	(low (_ep_data_out| (0+256)))& (0+255)
  4596  03C6  2BCA               	goto	L4
  4597  03C7                     i1l3686:	
  4598                           ;usb_device.c: 801: }
  4599                           
  4600                           
  4601                           ;usb_device.c: 802: else
  4602                           ;usb_device.c: 803: {
  4603                           ;usb_device.c: 804: ep_data_in[endpoint_number].bits.ping_pong_state ^= 1;
  4604  03C7  0023               	movlb	3	; select bank3
  4605  03C8  085D               	movf	_endpoint_number^(0+384),w	;volatile
  4606  03C9  3EC0               	addlw	(low (_ep_data_in| (0+256)))& (0+255)
  4607  03CA                     L4:	
  4608  03CA  0086               	movwf	6
  4609  03CB  3001               	movlw	1	; select bank3/4
  4610  03CC  0087               	movwf	7
  4611  03CD  0801               	movf	1,w
  4612  03CE  3901               	andlw	1
  4613  03CF  0021               	movlb	1	; select bank1
  4614  03D0  00E9               	movwf	??_USBDeviceTasks^(0+128)
  4615  03D1  3001               	movlw	1
  4616  03D2  06E9               	xorwf	??_USBDeviceTasks^(0+128),f
  4617  03D3  0801               	movf	1,w
  4618  03D4  0669               	xorwf	??_USBDeviceTasks^(0+128),w
  4619  03D5  39FE               	andlw	-2
  4620  03D6  0669               	xorwf	??_USBDeviceTasks^(0+128),w
  4621  03D7  0081               	movwf	1
  4622                           
  4623                           ;usb_device.c: 805: }
  4624                           ;usb_device.c: 810: if(endpoint_number == 0)
  4625  03D8  0023               	movlb	3	; select bank3
  4626  03D9  085D               	movf	_endpoint_number^(0+384),w	;volatile
  4627  03DA  1D03               	btfss	3,2
  4628  03DB  2BE0               	goto	i1l3692
  4629                           
  4630                           ;usb_device.c: 811: {
  4631                           ;usb_device.c: 812: USBCtrlEPService();
  4632  03DC  318A  2255  3183   	fcall	_USBCtrlEPService
  4633                           
  4634                           ;usb_device.c: 813: }
  4635  03DF  2BEF               	goto	i1l3694
  4636  03E0                     i1l3692:	
  4637                           
  4638                           ;usb_device.c: 814: else
  4639                           ;usb_device.c: 815: {
  4640                           ;usb_device.c: 816: USER_USB_CALLBACK_EVENT_HANDLER(EVENT_TRANSFER,(uint8_t*)&USTATcopy.
      +                          Val,0);
  4641  03E0  3072               	movlw	114
  4642  03E1  0020               	movlb	0	; select bank0
  4643  03E2  00E0               	movwf	USER_USB_CALLBACK_EVENT_HANDLER@event
  4644  03E3  3000               	movlw	0
  4645  03E4  00E1               	movwf	USER_USB_CALLBACK_EVENT_HANDLER@event+1
  4646  03E5  30E5               	movlw	low _USTATcopy
  4647  03E6  00E2               	movwf	USER_USB_CALLBACK_EVENT_HANDLER@pdata
  4648  03E7  3000               	movlw	high _USTATcopy
  4649  03E8  00E3               	movwf	USER_USB_CALLBACK_EVENT_HANDLER@pdata+1
  4650  03E9  3000               	movlw	0
  4651  03EA  00E4               	movwf	USER_USB_CALLBACK_EVENT_HANDLER@size
  4652  03EB  00E5               	movwf	USER_USB_CALLBACK_EVENT_HANDLER@size+1
  4653  03EC  3189  2108  3183   	fcall	_USER_USB_CALLBACK_EVENT_HANDLER
  4654  03EF                     i1l3694:	
  4655                           ;usb_device.c: 819: else
  4656                           ;usb_device.c: 820: {
  4657                           ;usb_device.c: 821: break;
  4658                           
  4659                           ;usb_device.c: 817: }
  4660                           ;usb_device.c: 818: }
  4661                           
  4662  03EF  3001               	movlw	1
  4663  03F0  0021               	movlb	1	; select bank1
  4664  03F1  00E9               	movwf	??_USBDeviceTasks^(0+128)
  4665  03F2  0869               	movf	??_USBDeviceTasks^(0+128),w
  4666  03F3  0020               	movlb	0	; select bank0
  4667  03F4  07EF               	addwf	USBDeviceTasks@i,f
  4668  03F5  3004               	movlw	4
  4669  03F6  026F               	subwf	USBDeviceTasks@i,w
  4670  03F7  1C03               	skipc
  4671  03F8  2BA9               	goto	i1l196
  4672  03F9                     i1l195:	
  4673                           
  4674                           ;usb_device.c: 822: }
  4675                           ;usb_device.c: 823: }
  4676                           ;usb_device.c: 824: }
  4677                           ;usb_device.c: 826: PIR2bits.USBIF = 0;;
  4678  03F9  0020               	movlb	0	; select bank0
  4679  03FA  1112               	bcf	18,2	;volatile
  4680  03FB  0008               	return
  4681  03FC                     __end_of_USBDeviceTasks:	
  4682                           
  4683                           	psect	text13
  4684  064C                     __ptext13:	
  4685 ;; *************** function i1_USBDeviceInit *****************
  4686 ;; Defined at:
  4687 ;;		line 277 in file "../lib/usb/src/usb_device.c"
  4688 ;; Parameters:    Size  Location     Type
  4689 ;;		None
  4690 ;; Auto vars:     Size  Location     Type
  4691 ;;  USBDeviceIni    2    1[COMMON] PTR unsigned char 
  4692 ;;		 -> UEP1(1), 
  4693 ;;  USBDeviceIni    1    4[COMMON] unsigned char 
  4694 ;;  USBDeviceIni    1    3[COMMON] unsigned char 
  4695 ;; Return value:  Size  Location     Type
  4696 ;;                  1    wreg      void 
  4697 ;; Registers used:
  4698 ;;		wreg, fsr1l, fsr1h, status,2, status,0
  4699 ;; Tracked objects:
  4700 ;;		On entry : 0/0
  4701 ;;		On exit  : 0/0
  4702 ;;		Unchanged: 0/0
  4703 ;; Data sizes:     COMMON   BANK0   BANK1   BANK2   BANK3   BANK4   BANK5   BANK6   BANK7   BANK8   BANK9  BANK10  BANK1
      +1  BANK12
  4704 ;;      Params:         0       0       0       0       0       0       0       0       0       0       0       0       
      +0       0
  4705 ;;      Locals:         4       0       0       0       0       0       0       0       0       0       0       0       
      +0       0
  4706 ;;      Temps:          1       0       0       0       0       0       0       0       0       0       0       0       
      +0       0
  4707 ;;      Totals:         5       0       0       0       0       0       0       0       0       0       0       0       
      +0       0
  4708 ;;Total ram usage:        5 bytes
  4709 ;; Hardware stack levels used:    1
  4710 ;; This function calls:
  4711 ;;		Nothing
  4712 ;; This function is called by:
  4713 ;;		_USBDeviceTasks
  4714 ;; This function uses a non-reentrant model
  4715 ;;
  4716                           
  4717                           
  4718                           ;psect for function i1_USBDeviceInit
  4719  064C                     i1_USBDeviceInit:	
  4720                           
  4721                           ;usb_device.c: 279: uint8_t i;
  4722                           ;usb_device.c: 281: {PIE2bits.USBIE = 0;};
  4723                           
  4724                           ;incstack = 0
  4725                           ; Regs used in i1_USBDeviceInit: [wreg+fsr1l+fsr1h+status,2+status,0]
  4726  064C  0021               	movlb	1	; select bank1
  4727  064D  1112               	bcf	18,2	;volatile
  4728                           
  4729                           ;usb_device.c: 285: ;
  4730                           ;usb_device.c: 288: {UEIR = 0;};
  4731  064E  003D               	movlb	29	; select bank29
  4732  064F  0193               	clrf	19	;volatile
  4733                           
  4734                           ;usb_device.c: 291: {UIR = 0;};
  4735  0650  0190               	clrf	16	;volatile
  4736                           
  4737                           ;usb_device.c: 294: UEP0 = 0;
  4738  0651  0198               	clrf	24	;volatile
  4739                           
  4740                           ;usb_device.c: 296: { uint8_t i; uint8_t* p = (uint8_t*)&UEP1; for(i=0;i<2;i++) *p++ = 0
      +                          ; };
  4741  0652  300E               	movlw	14
  4742  0653  00F2               	movwf	i1USBDeviceInit@p+1
  4743  0654  3099               	movlw	153
  4744  0655  00F1               	movwf	i1USBDeviceInit@p
  4745  0656  01F3               	clrf	i1USBDeviceInit@i_821
  4746  0657  3002               	movlw	2
  4747  0658  0273               	subwf	i1USBDeviceInit@i_821,w
  4748  0659  1803               	btfsc	3,0
  4749  065A  2E6C               	goto	i1l3416
  4750  065B                     i1l3408:	
  4751  065B  0871               	movf	i1USBDeviceInit@p,w
  4752  065C  0086               	movwf	6
  4753  065D  0872               	movf	i1USBDeviceInit@p+1,w
  4754  065E  0087               	movwf	7
  4755  065F  0181               	clrf	1
  4756  0660  3001               	movlw	1
  4757  0661  07F1               	addwf	i1USBDeviceInit@p,f
  4758  0662  3000               	movlw	0
  4759  0663  3DF2               	addwfc	i1USBDeviceInit@p+1,f
  4760  0664  3001               	movlw	1
  4761  0665  00F0               	movwf	??i1_USBDeviceInit
  4762  0666  0870               	movf	??i1_USBDeviceInit,w
  4763  0667  07F3               	addwf	i1USBDeviceInit@i_821,f
  4764  0668  3002               	movlw	2
  4765  0669  0273               	subwf	i1USBDeviceInit@i_821,w
  4766  066A  1C03               	skipc
  4767  066B  2E5B               	goto	i1l3408
  4768  066C                     i1l3416:	
  4769                           
  4770                           ;usb_device.c: 298: { UCFG = 0x10 | 0x00 | 0x04 | 0x02; UEIE = 0x9F; UIE = 0x39 | 0x40 |
      +                           0x02; };
  4771  066C  3016               	movlw	22
  4772  066D  003D               	movlb	29	; select bank29
  4773  066E  0091               	movwf	17	;volatile
  4774  066F  309F               	movlw	159
  4775  0670  0097               	movwf	23	;volatile
  4776  0671  307B               	movlw	123
  4777  0672  0092               	movwf	18	;volatile
  4778                           
  4779                           ;usb_device.c: 301: ;
  4780                           ;usb_device.c: 304: ;
  4781                           ;usb_device.c: 307: for(i = 0; i < (sizeof(BDT)/sizeof(BDT_ENTRY)); i++)
  4782  0673  01F4               	clrf	i1USBDeviceInit@i
  4783  0674  300C               	movlw	12
  4784  0675  0274               	subwf	i1USBDeviceInit@i,w
  4785  0676  1803               	btfsc	3,0
  4786  0677  2E91               	goto	i1l173
  4787  0678                     i1l3424:	
  4788                           
  4789                           ;usb_device.c: 308: {
  4790                           ;usb_device.c: 309: BDT[i].Val = 0x00;
  4791  0678  0874               	movf	i1USBDeviceInit@i,w
  4792  0679  00F0               	movwf	??i1_USBDeviceInit
  4793  067A  3001               	movlw	1
  4794  067B                     u284_25:	
  4795  067B  35F0               	lslf	??i1_USBDeviceInit,f
  4796  067C  3EFF               	addlw	-1
  4797  067D  1D03               	skipz
  4798  067E  2E7B               	goto	u284_25
  4799  067F  3570               	lslf	??i1_USBDeviceInit,w
  4800  0680  3E20               	addlw	32
  4801  0681  0086               	movwf	6
  4802  0682  0187               	clrf	7
  4803  0683  3000               	movlw	0
  4804  0684  3FC0               	movwi [0]fsr1
  4805  0685  3000               	movlw	0
  4806  0686  3FC1               	movwi [1]fsr1
  4807  0687  3FC2               	movwi [2]fsr1
  4808  0688  3FC3               	movwi [3]fsr1
  4809  0689  3001               	movlw	1
  4810  068A  00F0               	movwf	??i1_USBDeviceInit
  4811  068B  0870               	movf	??i1_USBDeviceInit,w
  4812  068C  07F4               	addwf	i1USBDeviceInit@i,f
  4813  068D  300C               	movlw	12
  4814  068E  0274               	subwf	i1USBDeviceInit@i,w
  4815  068F  1C03               	skipc
  4816  0690  2E78               	goto	i1l3424
  4817  0691                     i1l173:	
  4818                           
  4819                           ;usb_device.c: 310: }
  4820                           ;usb_device.c: 313: UCONbits.PPBRST = 1;
  4821  0691  003D               	movlb	29	; select bank29
  4822  0692  170E               	bsf	14,6	;volatile
  4823                           
  4824                           ;usb_device.c: 316: UADDR = 0x00;
  4825  0693  0196               	clrf	22	;volatile
  4826                           
  4827                           ;usb_device.c: 319: UCONbits.PKTDIS = 0;
  4828  0694  120E               	bcf	14,4	;volatile
  4829                           
  4830                           ;usb_device.c: 322: UCONbits.PPBRST = 0;
  4831  0695  130E               	bcf	14,6	;volatile
  4832  0696                     i1l3436:	
  4833                           ;usb_device.c: 325: do
  4834                           
  4835                           
  4836                           ;usb_device.c: 326: {
  4837                           ;usb_device.c: 327: (UIR &= 0xF7);
  4838  0696  30F7               	movlw	247
  4839  0697  00F0               	movwf	??i1_USBDeviceInit
  4840  0698  0870               	movf	??i1_USBDeviceInit,w
  4841  0699  0590               	andwf	16,f	;volatile
  4842                           
  4843                           ;usb_device.c: 329: inPipes[0].info.Val = 0;
  4844  069A  0023               	movlb	3	; select bank3
  4845  069B  01B5               	clrf	(_inPipes^(0+384)+2)	;volatile
  4846                           
  4847                           ;usb_device.c: 330: outPipes[0].info.Val = 0;
  4848  069C  01A2               	clrf	(_outPipes^(0+384)+2)	;volatile
  4849                           
  4850                           ;usb_device.c: 331: outPipes[0].wCount.Val = 0;
  4851  069D  01A3               	clrf	(_outPipes^(0+384)+3)	;volatile
  4852  069E  01A4               	clrf	((_outPipes+1)^(0+384)+3)	;volatile
  4853                           
  4854                           ;usb_device.c: 332: }while(UIRbits.TRNIF == 1);
  4855  069F  003D               	movlb	29	; select bank29
  4856  06A0  1990               	btfsc	16,3	;volatile
  4857  06A1  2E96               	goto	i1l3436
  4858                           
  4859                           ;usb_device.c: 336: USBStatusStageEnabledFlag1 = 1;
  4860  06A2  3001               	movlw	1
  4861  06A3  00F0               	movwf	??i1_USBDeviceInit
  4862  06A4  0870               	movf	??i1_USBDeviceInit,w
  4863  06A5  0023               	movlb	3	; select bank3
  4864  06A6  00D4               	movwf	_USBStatusStageEnabledFlag1^(0+384)	;volatile
  4865                           
  4866                           ;usb_device.c: 337: USBStatusStageEnabledFlag2 = 1;
  4867  06A7  3001               	movlw	1
  4868  06A8  00F0               	movwf	??i1_USBDeviceInit
  4869  06A9  0870               	movf	??i1_USBDeviceInit,w
  4870  06AA  00D5               	movwf	_USBStatusStageEnabledFlag2^(0+384)	;volatile
  4871                           
  4872                           ;usb_device.c: 339: USBDeferINDataStagePackets = 0;
  4873  06AB  01D1               	clrf	_USBDeferINDataStagePackets^(0+384)	;volatile
  4874                           
  4875                           ;usb_device.c: 340: USBDeferOUTDataStagePackets = 0;
  4876  06AC  01D2               	clrf	_USBDeferOUTDataStagePackets^(0+384)	;volatile
  4877                           
  4878                           ;usb_device.c: 341: USBBusIsSuspended = 0;
  4879  06AD  01D0               	clrf	_USBBusIsSuspended^(0+384)	;volatile
  4880                           
  4881                           ;usb_device.c: 345: for(i = 0; i < (uint8_t)(2+1u); i++)
  4882  06AE  01F4               	clrf	i1USBDeviceInit@i
  4883  06AF  3003               	movlw	3
  4884  06B0  0274               	subwf	i1USBDeviceInit@i,w
  4885  06B1  1803               	btfsc	3,0
  4886  06B2  2ED7               	goto	i1l3464
  4887  06B3                     i1l3458:	
  4888                           
  4889                           ;usb_device.c: 346: {
  4890                           ;usb_device.c: 347: pBDTEntryIn[i] = 0u;
  4891  06B3  3574               	lslf	i1USBDeviceInit@i,w
  4892  06B4  3EA7               	addlw	(low (_pBDTEntryIn| (0+256)))& (0+255)
  4893  06B5  0086               	movwf	6
  4894  06B6  3001               	movlw	1	; select bank3/4
  4895  06B7  0087               	movwf	7
  4896  06B8  3000               	movlw	0
  4897  06B9  3FC0               	movwi [0]fsr1
  4898  06BA  3FC1               	movwi [1]fsr1
  4899                           
  4900                           ;usb_device.c: 348: pBDTEntryOut[i] = 0u;
  4901  06BB  3574               	lslf	i1USBDeviceInit@i,w
  4902  06BC  3EAD               	addlw	(low (_pBDTEntryOut| (0+256)))& (0+255)
  4903  06BD  0086               	movwf	6
  4904  06BE  3001               	movlw	1	; select bank3/4
  4905  06BF  0087               	movwf	7
  4906  06C0  3000               	movlw	0
  4907  06C1  3FC0               	movwi [0]fsr1
  4908  06C2  3FC1               	movwi [1]fsr1
  4909                           
  4910                           ;usb_device.c: 349: ep_data_in[i].Val = 0u;
  4911  06C3  0874               	movf	i1USBDeviceInit@i,w
  4912  06C4  3EC0               	addlw	(low (_ep_data_in| (0+256)))& (0+255)
  4913  06C5  0086               	movwf	6
  4914  06C6  3001               	movlw	1	; select bank3/4
  4915  06C7  0087               	movwf	7
  4916  06C8  0181               	clrf	1
  4917                           
  4918                           ;usb_device.c: 350: ep_data_out[i].Val = 0u;
  4919  06C9  0874               	movf	i1USBDeviceInit@i,w
  4920  06CA  3EC3               	addlw	(low (_ep_data_out| (0+256)))& (0+255)
  4921  06CB  0086               	movwf	6
  4922  06CC  3001               	movlw	1	; select bank3/4
  4923  06CD  0087               	movwf	7
  4924  06CE  0181               	clrf	1
  4925  06CF  3001               	movlw	1
  4926  06D0  00F0               	movwf	??i1_USBDeviceInit
  4927  06D1  0870               	movf	??i1_USBDeviceInit,w
  4928  06D2  07F4               	addwf	i1USBDeviceInit@i,f
  4929  06D3  3003               	movlw	3
  4930  06D4  0274               	subwf	i1USBDeviceInit@i,w
  4931  06D5  1C03               	skipc
  4932  06D6  2EB3               	goto	i1l3458
  4933  06D7                     i1l3464:	
  4934                           
  4935                           ;usb_device.c: 351: }
  4936                           ;usb_device.c: 354: pBDTEntryIn[0] = (volatile BDT_ENTRY*)&BDT[2];
  4937  06D7  3028               	movlw	40
  4938  06D8  0023               	movlb	3	; select bank3
  4939  06D9  00A7               	movwf	_pBDTEntryIn^(0+384)
  4940  06DA  3000               	movlw	0
  4941  06DB  00A8               	movwf	(_pBDTEntryIn+1)^(0+384)
  4942                           
  4943                           ;usb_device.c: 356: UEP0 = 0x06|0x10;
  4944  06DC  3016               	movlw	22
  4945  06DD  003D               	movlb	29	; select bank29
  4946  06DE  0098               	movwf	24	;volatile
  4947                           
  4948                           ;usb_device.c: 358: BDT[0].ADR = (((uint16_t)(&SetupPkt)) & 0x7FFF);
  4949  06DF  3000               	movlw	0
  4950  06E0  0020               	movlb	0	; select bank0
  4951  06E1  00A3               	movwf	35	;volatile
  4952  06E2  3050               	movlw	80
  4953  06E3  00A2               	movwf	34	;volatile
  4954                           
  4955                           ;usb_device.c: 359: BDT[0].CNT = 8;
  4956  06E4  3008               	movlw	8
  4957  06E5  00A1               	movwf	33	;volatile
  4958                           
  4959                           ;usb_device.c: 360: BDT[0].STAT.Val = 0x00|0x04;
  4960  06E6  3004               	movlw	4
  4961  06E7  00F0               	movwf	??i1_USBDeviceInit
  4962  06E8  0870               	movf	??i1_USBDeviceInit,w
  4963  06E9  00A0               	movwf	32	;volatile
  4964                           
  4965                           ;usb_device.c: 361: BDT[0].STAT.Val |= 0x80;
  4966  06EA  17A0               	bsf	32,7	;volatile
  4967                           
  4968                           ;usb_device.c: 364: USBActiveConfiguration = 0;
  4969  06EB  0023               	movlb	3	; select bank3
  4970  06EC  01E9               	clrf	_USBActiveConfiguration^(0+384)	;volatile
  4971                           
  4972                           ;usb_device.c: 366: USB1msTickCount = 0;
  4973  06ED  3000               	movlw	0
  4974  06EE  00BF               	movwf	(_USB1msTickCount+3)^(0+384)	;volatile
  4975  06EF  3000               	movlw	0
  4976  06F0  00BE               	movwf	(_USB1msTickCount+2)^(0+384)	;volatile
  4977  06F1  3000               	movlw	0
  4978  06F2  00BD               	movwf	(_USB1msTickCount+1)^(0+384)	;volatile
  4979  06F3  3000               	movlw	0
  4980  06F4  00BC               	movwf	_USB1msTickCount^(0+384)	;volatile
  4981                           
  4982                           ;usb_device.c: 367: USBTicksSinceSuspendEnd = 0;
  4983  06F5  01D7               	clrf	_USBTicksSinceSuspendEnd^(0+384)	;volatile
  4984                           
  4985                           ;usb_device.c: 370: USBDeviceState = DETACHED_STATE;
  4986  06F6  0021               	movlb	1	; select bank1
  4987  06F7  01E2               	clrf	_USBDeviceState^(0+128)	;volatile
  4988  06F8  0008               	return
  4989  06F9                     __end_ofi1_USBDeviceInit:	
  4990                           
  4991                           	psect	text14
  4992  0832                     __ptext14:	
  4993 ;; *************** function _USBWakeFromSuspend *****************
  4994 ;; Defined at:
  4995 ;;		line 2303 in file "../lib/usb/src/usb_device.c"
  4996 ;; Parameters:    Size  Location     Type
  4997 ;;		None
  4998 ;; Auto vars:     Size  Location     Type
  4999 ;;		None
  5000 ;; Return value:  Size  Location     Type
  5001 ;;                  1    wreg      void 
  5002 ;; Registers used:
  5003 ;;		wreg, fsr0l, fsr0h, fsr1l, fsr1h, status,2, status,0, pclath, cstack
  5004 ;; Tracked objects:
  5005 ;;		On entry : 0/0
  5006 ;;		On exit  : 0/0
  5007 ;;		Unchanged: 0/0
  5008 ;; Data sizes:     COMMON   BANK0   BANK1   BANK2   BANK3   BANK4   BANK5   BANK6   BANK7   BANK8   BANK9  BANK10  BANK1
      +1  BANK12
  5009 ;;      Params:         0       0       0       0       0       0       0       0       0       0       0       0       
      +0       0
  5010 ;;      Locals:         0       0       0       0       0       0       0       0       0       0       0       0       
      +0       0
  5011 ;;      Temps:          0       1       0       0       0       0       0       0       0       0       0       0       
      +0       0
  5012 ;;      Totals:         0       1       0       0       0       0       0       0       0       0       0       0       
      +0       0
  5013 ;;Total ram usage:        1 bytes
  5014 ;; Hardware stack levels used:    1
  5015 ;; Hardware stack levels required when called:    4
  5016 ;; This function calls:
  5017 ;;		_USER_USB_CALLBACK_EVENT_HANDLER
  5018 ;; This function is called by:
  5019 ;;		_USBDeviceTasks
  5020 ;; This function uses a non-reentrant model
  5021 ;;
  5022                           
  5023                           
  5024                           ;psect for function _USBWakeFromSuspend
  5025  0832                     _USBWakeFromSuspend:	
  5026                           
  5027                           ;usb_device.c: 2305: USBBusIsSuspended = 0;
  5028                           
  5029                           ;incstack = 0
  5030                           ; Regs used in _USBWakeFromSuspend: [wreg-fsr1h+status,2+status,0+pclath+cstack]
  5031  0832  0023               	movlb	3	; select bank3
  5032  0833  01D0               	clrf	_USBBusIsSuspended^(0+384)	;volatile
  5033                           
  5034                           ;usb_device.c: 2311: USER_USB_CALLBACK_EVENT_HANDLER(EVENT_RESUME,0,0);
  5035  0834  3074               	movlw	116
  5036  0835  0020               	movlb	0	; select bank0
  5037  0836  00E0               	movwf	USER_USB_CALLBACK_EVENT_HANDLER@event
  5038  0837  3000               	movlw	0
  5039  0838  00E1               	movwf	USER_USB_CALLBACK_EVENT_HANDLER@event+1
  5040  0839  3000               	movlw	0
  5041  083A  00E2               	movwf	USER_USB_CALLBACK_EVENT_HANDLER@pdata
  5042  083B  3000               	movlw	0
  5043  083C  00E3               	movwf	USER_USB_CALLBACK_EVENT_HANDLER@pdata+1
  5044  083D  3000               	movlw	0
  5045  083E  00E4               	movwf	USER_USB_CALLBACK_EVENT_HANDLER@size
  5046  083F  00E5               	movwf	USER_USB_CALLBACK_EVENT_HANDLER@size+1
  5047  0840  3189  2108  3188   	fcall	_USER_USB_CALLBACK_EVENT_HANDLER
  5048                           
  5049                           ;usb_device.c: 2318: UCONbits.SUSPND = 0;
  5050  0843  003D               	movlb	29	; select bank29
  5051  0844  108E               	bcf	14,1	;volatile
  5052                           
  5053                           ;usb_device.c: 2323: UIEbits.ACTVIE = 0;
  5054  0845  1112               	bcf	18,2	;volatile
  5055  0846                     i1l3300:	
  5056                           ;usb_device.c: 2341: while(UIRbits.ACTVIF)
  5057                           
  5058  0846  1D10               	btfss	16,2	;volatile
  5059  0847  284F               	goto	i1l3302
  5060                           
  5061                           ;usb_device.c: 2343: {
  5062                           ;usb_device.c: 2344: (UIR &= 0xFB);
  5063  0848  30FB               	movlw	251
  5064  0849  0020               	movlb	0	; select bank0
  5065  084A  00E6               	movwf	??_USBWakeFromSuspend
  5066  084B  0866               	movf	??_USBWakeFromSuspend,w
  5067  084C  003D               	movlb	29	; select bank29
  5068  084D  0590               	andwf	16,f	;volatile
  5069  084E  2846               	goto	i1l3300
  5070  084F                     i1l3302:	
  5071                           
  5072                           ;usb_device.c: 2345: }
  5073                           ;usb_device.c: 2347: USBTicksSinceSuspendEnd = 0;
  5074  084F  0023               	movlb	3	; select bank3
  5075  0850  01D7               	clrf	_USBTicksSinceSuspendEnd^(0+384)	;volatile
  5076  0851  0008               	return
  5077  0852                     __end_of_USBWakeFromSuspend:	
  5078                           
  5079                           	psect	text15
  5080  17E1                     __ptext15:	
  5081 ;; *************** function _USBSuspend *****************
  5082 ;; Defined at:
  5083 ;;		line 2245 in file "../lib/usb/src/usb_device.c"
  5084 ;; Parameters:    Size  Location     Type
  5085 ;;		None
  5086 ;; Auto vars:     Size  Location     Type
  5087 ;;		None
  5088 ;; Return value:  Size  Location     Type
  5089 ;;                  1    wreg      void 
  5090 ;; Registers used:
  5091 ;;		wreg, fsr0l, fsr0h, fsr1l, fsr1h, status,2, status,0, pclath, cstack
  5092 ;; Tracked objects:
  5093 ;;		On entry : 0/0
  5094 ;;		On exit  : 0/0
  5095 ;;		Unchanged: 0/0
  5096 ;; Data sizes:     COMMON   BANK0   BANK1   BANK2   BANK3   BANK4   BANK5   BANK6   BANK7   BANK8   BANK9  BANK10  BANK1
      +1  BANK12
  5097 ;;      Params:         0       0       0       0       0       0       0       0       0       0       0       0       
      +0       0
  5098 ;;      Locals:         0       0       0       0       0       0       0       0       0       0       0       0       
      +0       0
  5099 ;;      Temps:          0       1       0       0       0       0       0       0       0       0       0       0       
      +0       0
  5100 ;;      Totals:         0       1       0       0       0       0       0       0       0       0       0       0       
      +0       0
  5101 ;;Total ram usage:        1 bytes
  5102 ;; Hardware stack levels used:    1
  5103 ;; Hardware stack levels required when called:    4
  5104 ;; This function calls:
  5105 ;;		_USER_USB_CALLBACK_EVENT_HANDLER
  5106 ;; This function is called by:
  5107 ;;		_USBDeviceTasks
  5108 ;; This function uses a non-reentrant model
  5109 ;;
  5110                           
  5111                           
  5112                           ;psect for function _USBSuspend
  5113  17E1                     _USBSuspend:	
  5114                           
  5115                           ;usb_device.c: 2270: UIEbits.ACTVIE = 1;
  5116                           
  5117                           ;incstack = 0
  5118                           ; Regs used in _USBSuspend: [wreg-fsr1h+status,2+status,0+pclath+cstack]
  5119  17E1  003D               	movlb	29	; select bank29
  5120  17E2  1512               	bsf	18,2	;volatile
  5121                           
  5122                           ;usb_device.c: 2271: (UIR &= 0xEF);
  5123  17E3  30EF               	movlw	239
  5124  17E4  0020               	movlb	0	; select bank0
  5125  17E5  00E6               	movwf	??_USBSuspend
  5126  17E6  0866               	movf	??_USBSuspend,w
  5127  17E7  003D               	movlb	29	; select bank29
  5128  17E8  0590               	andwf	16,f	;volatile
  5129                           
  5130                           ;usb_device.c: 2274: UCONbits.SUSPND = 1;
  5131  17E9  148E               	bsf	14,1	;volatile
  5132                           
  5133                           ;usb_device.c: 2277: USBBusIsSuspended = 1;
  5134  17EA  3001               	movlw	1
  5135  17EB  0020               	movlb	0	; select bank0
  5136  17EC  00E6               	movwf	??_USBSuspend
  5137  17ED  0866               	movf	??_USBSuspend,w
  5138  17EE  0023               	movlb	3	; select bank3
  5139  17EF  00D0               	movwf	_USBBusIsSuspended^(0+384)	;volatile
  5140                           
  5141                           ;usb_device.c: 2278: USBTicksSinceSuspendEnd = 0;
  5142  17F0  01D7               	clrf	_USBTicksSinceSuspendEnd^(0+384)	;volatile
  5143                           
  5144                           ;usb_device.c: 2285: USER_USB_CALLBACK_EVENT_HANDLER(EVENT_SUSPEND,0,0);
  5145  17F1  3075               	movlw	117
  5146  17F2  0020               	movlb	0	; select bank0
  5147  17F3  00E0               	movwf	USER_USB_CALLBACK_EVENT_HANDLER@event
  5148  17F4  3000               	movlw	0
  5149  17F5  00E1               	movwf	USER_USB_CALLBACK_EVENT_HANDLER@event+1
  5150  17F6  3000               	movlw	0
  5151  17F7  00E2               	movwf	USER_USB_CALLBACK_EVENT_HANDLER@pdata
  5152  17F8  3000               	movlw	0
  5153  17F9  00E3               	movwf	USER_USB_CALLBACK_EVENT_HANDLER@pdata+1
  5154  17FA  3000               	movlw	0
  5155  17FB  00E4               	movwf	USER_USB_CALLBACK_EVENT_HANDLER@size
  5156  17FC  00E5               	movwf	USER_USB_CALLBACK_EVENT_HANDLER@size+1
  5157  17FD  3189  2108         	fcall	_USER_USB_CALLBACK_EVENT_HANDLER
  5158  17FF  0008               	return
  5159  1800                     __end_of_USBSuspend:	
  5160                           
  5161                           	psect	text16
  5162  0875                     __ptext16:	
  5163 ;; *************** function _USBStallHandler *****************
  5164 ;; Defined at:
  5165 ;;		line 2202 in file "../lib/usb/src/usb_device.c"
  5166 ;; Parameters:    Size  Location     Type
  5167 ;;		None
  5168 ;; Auto vars:     Size  Location     Type
  5169 ;;		None
  5170 ;; Return value:  Size  Location     Type
  5171 ;;                  1    wreg      void 
  5172 ;; Registers used:
  5173 ;;		wreg, fsr1l, fsr1h, status,2, status,0
  5174 ;; Tracked objects:
  5175 ;;		On entry : 0/0
  5176 ;;		On exit  : 0/0
  5177 ;;		Unchanged: 0/0
  5178 ;; Data sizes:     COMMON   BANK0   BANK1   BANK2   BANK3   BANK4   BANK5   BANK6   BANK7   BANK8   BANK9  BANK10  BANK1
      +1  BANK12
  5179 ;;      Params:         0       0       0       0       0       0       0       0       0       0       0       0       
      +0       0
  5180 ;;      Locals:         0       0       0       0       0       0       0       0       0       0       0       0       
      +0       0
  5181 ;;      Temps:          1       0       0       0       0       0       0       0       0       0       0       0       
      +0       0
  5182 ;;      Totals:         1       0       0       0       0       0       0       0       0       0       0       0       
      +0       0
  5183 ;;Total ram usage:        1 bytes
  5184 ;; Hardware stack levels used:    1
  5185 ;; This function calls:
  5186 ;;		Nothing
  5187 ;; This function is called by:
  5188 ;;		_USBDeviceTasks
  5189 ;; This function uses a non-reentrant model
  5190 ;;
  5191                           
  5192                           
  5193                           ;psect for function _USBStallHandler
  5194  0875                     _USBStallHandler:	
  5195                           
  5196                           ;usb_device.c: 2214: if(UEP0bits.EPSTALL == 1)
  5197                           
  5198                           ;incstack = 0
  5199                           ; Regs used in _USBStallHandler: [wreg+fsr1l+fsr1h+status,2+status,0]
  5200  0875  003D               	movlb	29	; select bank29
  5201  0876  1C18               	btfss	24,0	;volatile
  5202  0877  2897               	goto	i1l3334
  5203                           
  5204                           ;usb_device.c: 2215: {
  5205                           ;usb_device.c: 2217: if((pBDTEntryEP0OutCurrent->STAT.Val == 0x80) && (pBDTEntryIn[0]->S
      +                          TAT.Val == (0x80|0x04)))
  5206  0878  0021               	movlb	1	; select bank1
  5207  0879  0864               	movf	_pBDTEntryEP0OutCurrent^(0+128),w
  5208  087A  0086               	movwf	6
  5209  087B  0187               	clrf	7
  5210  087C  3080               	movlw	128
  5211  087D  0601               	xorwf	1,w
  5212  087E  1D03               	btfss	3,2
  5213  087F  2895               	goto	i1l3332
  5214  0880  0023               	movlb	3	; select bank3
  5215  0881  0827               	movf	_pBDTEntryIn^(0+384),w
  5216  0882  0086               	movwf	6
  5217  0883  0828               	movf	(_pBDTEntryIn+1)^(0+384),w
  5218  0884  0087               	movwf	7
  5219  0885  3084               	movlw	132
  5220  0886  0601               	xorwf	1,w
  5221  0887  1D03               	btfss	3,2
  5222  0888  2895               	goto	i1l3332
  5223                           
  5224                           ;usb_device.c: 2218: {
  5225                           ;usb_device.c: 2220: pBDTEntryEP0OutCurrent->STAT.Val = 0x00|(0x08 & 0x08)|0x04;
  5226  0889  300C               	movlw	12
  5227  088A  00F0               	movwf	??_USBStallHandler
  5228  088B  0021               	movlb	1	; select bank1
  5229  088C  0864               	movf	_pBDTEntryEP0OutCurrent^(0+128),w
  5230  088D  0086               	movwf	6
  5231  088E  0187               	clrf	7
  5232  088F  0870               	movf	??_USBStallHandler,w
  5233  0890  0081               	movwf	1
  5234                           
  5235                           ;usb_device.c: 2221: pBDTEntryEP0OutCurrent->STAT.Val |= 0x80;
  5236  0891  0864               	movf	_pBDTEntryEP0OutCurrent^(0+128),w
  5237  0892  0086               	movwf	6
  5238  0893  0187               	clrf	7
  5239  0894  1781               	bsf	1,7
  5240  0895                     i1l3332:	
  5241                           
  5242                           ;usb_device.c: 2222: }
  5243                           ;usb_device.c: 2223: UEP0bits.EPSTALL = 0;
  5244  0895  003D               	movlb	29	; select bank29
  5245  0896  1018               	bcf	24,0	;volatile
  5246  0897                     i1l3334:	
  5247                           
  5248                           ;usb_device.c: 2224: }
  5249                           ;usb_device.c: 2226: (UIR &= 0xDF);
  5250  0897  30DF               	movlw	223
  5251  0898  00F0               	movwf	??_USBStallHandler
  5252  0899  0870               	movf	??_USBStallHandler,w
  5253  089A  0590               	andwf	16,f	;volatile
  5254  089B  0008               	return
  5255  089C                     __end_of_USBStallHandler:	
  5256                           
  5257                           	psect	text17
  5258  1791                     __ptext17:	
  5259 ;; *************** function _USBIncrement1msInternalTimers *****************
  5260 ;; Defined at:
  5261 ;;		line 3025 in file "../lib/usb/src/usb_device.c"
  5262 ;; Parameters:    Size  Location     Type
  5263 ;;		None
  5264 ;; Auto vars:     Size  Location     Type
  5265 ;;		None
  5266 ;; Return value:  Size  Location     Type
  5267 ;;                  1    wreg      void 
  5268 ;; Registers used:
  5269 ;;		wreg, status,2, status,0
  5270 ;; Tracked objects:
  5271 ;;		On entry : 0/0
  5272 ;;		On exit  : 0/0
  5273 ;;		Unchanged: 0/0
  5274 ;; Data sizes:     COMMON   BANK0   BANK1   BANK2   BANK3   BANK4   BANK5   BANK6   BANK7   BANK8   BANK9  BANK10  BANK1
      +1  BANK12
  5275 ;;      Params:         0       0       0       0       0       0       0       0       0       0       0       0       
      +0       0
  5276 ;;      Locals:         0       0       0       0       0       0       0       0       0       0       0       0       
      +0       0
  5277 ;;      Temps:          1       0       0       0       0       0       0       0       0       0       0       0       
      +0       0
  5278 ;;      Totals:         1       0       0       0       0       0       0       0       0       0       0       0       
      +0       0
  5279 ;;Total ram usage:        1 bytes
  5280 ;; Hardware stack levels used:    1
  5281 ;; This function calls:
  5282 ;;		Nothing
  5283 ;; This function is called by:
  5284 ;;		_USBDeviceTasks
  5285 ;; This function uses a non-reentrant model
  5286 ;;
  5287                           
  5288                           
  5289                           ;psect for function _USBIncrement1msInternalTimers
  5290  1791                     _USBIncrement1msInternalTimers:	
  5291                           
  5292                           ;usb_device.c: 3033: USB1msTickCount++;
  5293                           
  5294                           ;incstack = 0
  5295                           ; Regs used in _USBIncrement1msInternalTimers: [wreg+status,2+status,0]
  5296  1791  3001               	movlw	1
  5297  1792  0023               	movlb	3	; select bank3
  5298  1793  07BC               	addwf	_USB1msTickCount^(0+384),f	;volatile
  5299  1794  3000               	movlw	0
  5300  1795  3DBD               	addwfc	(_USB1msTickCount+1)^(0+384),f	;volatile
  5301  1796  3000               	movlw	0
  5302  1797  3DBE               	addwfc	(_USB1msTickCount+2)^(0+384),f	;volatile
  5303  1798  3000               	movlw	0
  5304  1799  3DBF               	addwfc	(_USB1msTickCount+3)^(0+384),f	;volatile
  5305                           
  5306                           ;usb_device.c: 3034: if(USBBusIsSuspended == 0)
  5307  179A  0850               	movf	_USBBusIsSuspended^(0+384),w	;volatile
  5308  179B  1D03               	btfss	3,2
  5309  179C  0008               	return
  5310                           
  5311                           ;usb_device.c: 3035: {
  5312                           ;usb_device.c: 3036: USBTicksSinceSuspendEnd++;
  5313  179D  3001               	movlw	1
  5314  179E  00F0               	movwf	??_USBIncrement1msInternalTimers
  5315  179F  0870               	movf	??_USBIncrement1msInternalTimers,w
  5316  17A0  07D7               	addwf	_USBTicksSinceSuspendEnd^(0+384),f	;volatile
  5317                           
  5318                           ;usb_device.c: 3038: if(USBTicksSinceSuspendEnd == 0)
  5319  17A1  0857               	movf	_USBTicksSinceSuspendEnd^(0+384),w	;volatile
  5320  17A2  1D03               	btfss	3,2
  5321  17A3  0008               	return
  5322                           
  5323                           ;usb_device.c: 3039: {
  5324                           ;usb_device.c: 3040: USBTicksSinceSuspendEnd = 255;
  5325  17A4  30FF               	movlw	255
  5326  17A5  00F0               	movwf	??_USBIncrement1msInternalTimers
  5327  17A6  0870               	movf	??_USBIncrement1msInternalTimers,w
  5328  17A7  00D7               	movwf	_USBTicksSinceSuspendEnd^(0+384)	;volatile
  5329  17A8  0008               	return
  5330  17A9                     __end_of_USBIncrement1msInternalTimers:	
  5331                           
  5332                           	psect	text18
  5333  0A55                     __ptext18:	
  5334 ;; *************** function _USBCtrlEPService *****************
  5335 ;; Defined at:
  5336 ;;		line 2372 in file "../lib/usb/src/usb_device.c"
  5337 ;; Parameters:    Size  Location     Type
  5338 ;;		None
  5339 ;; Auto vars:     Size  Location     Type
  5340 ;;		None
  5341 ;; Return value:  Size  Location     Type
  5342 ;;                  1    wreg      void 
  5343 ;; Registers used:
  5344 ;;		wreg, fsr0l, fsr0h, fsr1l, fsr1h, status,2, status,0, pclath, cstack
  5345 ;; Tracked objects:
  5346 ;;		On entry : 0/0
  5347 ;;		On exit  : 0/0
  5348 ;;		Unchanged: 0/0
  5349 ;; Data sizes:     COMMON   BANK0   BANK1   BANK2   BANK3   BANK4   BANK5   BANK6   BANK7   BANK8   BANK9  BANK10  BANK1
      +1  BANK12
  5350 ;;      Params:         0       0       0       0       0       0       0       0       0       0       0       0       
      +0       0
  5351 ;;      Locals:         0       0       0       0       0       0       0       0       0       0       0       0       
      +0       0
  5352 ;;      Temps:          0       0       3       0       0       0       0       0       0       0       0       0       
      +0       0
  5353 ;;      Totals:         0       0       3       0       0       0       0       0       0       0       0       0       
      +0       0
  5354 ;;Total ram usage:        3 bytes
  5355 ;; Hardware stack levels used:    1
  5356 ;; Hardware stack levels required when called:    7
  5357 ;; This function calls:
  5358 ;;		_USBCtrlTrfInHandler
  5359 ;;		_USBCtrlTrfOutHandler
  5360 ;;		_USBCtrlTrfSetupHandler
  5361 ;; This function is called by:
  5362 ;;		_USBDeviceTasks
  5363 ;; This function uses a non-reentrant model
  5364 ;;
  5365                           
  5366                           
  5367                           ;psect for function _USBCtrlEPService
  5368  0A55                     _USBCtrlEPService:	
  5369                           
  5370                           ;usb_device.c: 2378: USBStatusStageTimeoutCounter = (uint8_t)45;
  5371                           
  5372                           ;incstack = 0
  5373                           ; Regs used in _USBCtrlEPService: [wreg-fsr1h+status,2+status,0+pclath+cstack]
  5374  0A55  302D               	movlw	45
  5375  0A56  0021               	movlb	1	; select bank1
  5376  0A57  00E6               	movwf	??_USBCtrlEPService^(0+128)
  5377  0A58  0866               	movf	??_USBCtrlEPService^(0+128),w
  5378  0A59  0023               	movlb	3	; select bank3
  5379  0A5A  00D6               	movwf	_USBStatusStageTimeoutCounter^(0+384)	;volatile
  5380                           
  5381                           ;usb_device.c: 2382: if((USTATcopy.Val & ~0x02) == 0x00)
  5382  0A5B  0021               	movlb	1	; select bank1
  5383  0A5C  0865               	movf	_USTATcopy^(0+128),w	;volatile
  5384  0A5D  39FD               	andlw	253
  5385  0A5E  1D03               	btfss	3,2
  5386  0A5F  2A9E               	goto	i1l3354
  5387                           
  5388                           ;usb_device.c: 2383: {
  5389                           ;usb_device.c: 2386: pBDTEntryEP0OutCurrent = (volatile BDT_ENTRY*)&BDT[(USTATcopy.Val &
      +                           0x7E)>>1];
  5390  0A60  3665               	lsrf	_USTATcopy^(0+128),w	;volatile
  5391  0A61  393F               	andlw	63
  5392  0A62  00E6               	movwf	??_USBCtrlEPService^(0+128)
  5393  0A63  3001               	movlw	1
  5394  0A64                     u272_25:	
  5395  0A64  35E6               	lslf	??_USBCtrlEPService^(0+128),f
  5396  0A65  3EFF               	addlw	-1
  5397  0A66  1D03               	skipz
  5398  0A67  2A64               	goto	u272_25
  5399  0A68  3566               	lslf	??_USBCtrlEPService^(0+128),w
  5400  0A69  3E20               	addlw	32
  5401  0A6A  00E7               	movwf	(??_USBCtrlEPService+1)^(0+128)
  5402  0A6B  0867               	movf	(??_USBCtrlEPService+1)^(0+128),w
  5403  0A6C  00E4               	movwf	_pBDTEntryEP0OutCurrent^(0+128)
  5404                           
  5405                           ;usb_device.c: 2394: pBDTEntryEP0OutNext = pBDTEntryEP0OutCurrent;
  5406  0A6D  0864               	movf	_pBDTEntryEP0OutCurrent^(0+128),w
  5407  0A6E  00E0               	movwf	_pBDTEntryEP0OutNext^(0+128)
  5408  0A6F  39FF               	andlw	255
  5409  0A70  1D03               	skipz
  5410  0A71  3000               	movlw	0
  5411  0A72  00E1               	movwf	(_pBDTEntryEP0OutNext+1)^(0+128)
  5412                           
  5413                           ;usb_device.c: 2396: pBDTEntryEP0OutNext = (volatile BDT_ENTRY*)(((uintptr_t)pBDTEntryEP
      +                          0OutNext) ^ 0x0004);
  5414  0A73  3004               	movlw	4
  5415  0A74  0660               	xorwf	_pBDTEntryEP0OutNext^(0+128),w
  5416  0A75  00E0               	movwf	_pBDTEntryEP0OutNext^(0+128)
  5417  0A76  3000               	movlw	0
  5418  0A77  0661               	xorwf	(_pBDTEntryEP0OutNext+1)^(0+128),w
  5419  0A78  00E1               	movwf	(_pBDTEntryEP0OutNext+1)^(0+128)
  5420                           
  5421                           ;usb_device.c: 2399: if(pBDTEntryEP0OutCurrent->STAT.PID == 0xD)
  5422  0A79  0864               	movf	_pBDTEntryEP0OutCurrent^(0+128),w
  5423  0A7A  0086               	movwf	6
  5424  0A7B  0187               	clrf	7
  5425  0A7C  0C01               	rrf	1,w
  5426  0A7D  0C89               	rrf	9,f
  5427  0A7E  390F               	andlw	15
  5428  0A7F  3A0D               	xorlw	13
  5429  0A80  1D03               	skipz
  5430  0A81  2A9B               	goto	i1l3352
  5431                           
  5432                           ;usb_device.c: 2400: {
  5433                           ;usb_device.c: 2405: __builtin_memcpy((uint8_t*)&SetupPkt,(uint8_t*)((void *)(pBDTEntryE
      +                          P0OutCurrent->ADR)),8);
  5434  0A82  3050               	movlw	80
  5435  0A83  0086               	movwf	6
  5436  0A84  0187               	clrf	7
  5437  0A85  0021               	movlb	1	; select bank1
  5438  0A86  0864               	movf	_pBDTEntryEP0OutCurrent^(0+128),w
  5439  0A87  3E02               	addlw	2
  5440  0A88  0084               	movwf	4
  5441  0A89  0185               	clrf	5
  5442  0A8A  3F00               	moviw [0]fsr0
  5443  0A8B  00E6               	movwf	??_USBCtrlEPService^(0+128)
  5444  0A8C  3F01               	moviw [1]fsr0
  5445  0A8D  00E7               	movwf	(??_USBCtrlEPService^(0+128)+1)
  5446  0A8E  0866               	movf	??_USBCtrlEPService^(0+128),w
  5447  0A8F  0084               	movwf	4
  5448  0A90  0867               	movf	(??_USBCtrlEPService+1)^(0+128),w
  5449  0A91  0085               	movwf	5
  5450  0A92  3008               	movlw	8
  5451  0A93  00E8               	movwf	(??_USBCtrlEPService+2)^(0+128)
  5452  0A94                     u274_2m0:	
  5453  0A94  0012               	moviw fsr0++
  5454  0A95  001E               	movwi fsr1++
  5455  0A96  0BE8               	decfsz	(??_USBCtrlEPService+2)^(0+128),f
  5456  0A97  2A94               	goto	u274_2m0
  5457                           
  5458                           ;usb_device.c: 2408: USBCtrlTrfSetupHandler();
  5459  0A98  318A  2202         	fcall	_USBCtrlTrfSetupHandler
  5460                           
  5461                           ;usb_device.c: 2409: }
  5462  0A9A  0008               	return
  5463  0A9B                     i1l3352:	
  5464                           
  5465                           ;usb_device.c: 2410: else
  5466                           ;usb_device.c: 2411: {
  5467                           ;usb_device.c: 2413: USBCtrlTrfOutHandler();
  5468  0A9B  3188  20D1         	fcall	_USBCtrlTrfOutHandler
  5469                           
  5470                           ;usb_device.c: 2414: }
  5471                           ;usb_device.c: 2415: }
  5472  0A9D  0008               	return
  5473  0A9E                     i1l3354:	
  5474                           
  5475                           ;usb_device.c: 2416: else if((USTATcopy.Val & ~0x02) == 0x04)
  5476  0A9E  30FD               	movlw	253
  5477  0A9F  0021               	movlb	1	; select bank1
  5478  0AA0  0565               	andwf	_USTATcopy^(0+128),w	;volatile
  5479  0AA1  00E6               	movwf	??_USBCtrlEPService^(0+128)
  5480  0AA2  3004               	movlw	4
  5481  0AA3  0666               	xorwf	??_USBCtrlEPService^(0+128),w
  5482  0AA4  1D03               	btfss	3,2
  5483  0AA5  0008               	return
  5484                           
  5485                           ;usb_device.c: 2417: {
  5486                           ;usb_device.c: 2420: USBCtrlTrfInHandler();
  5487  0AA6  318C  247C         	fcall	_USBCtrlTrfInHandler
  5488  0AA8  0008               	return
  5489  0AA9                     __end_of_USBCtrlEPService:	
  5490                           
  5491                           	psect	text19
  5492  0A02                     __ptext19:	
  5493 ;; *************** function _USBCtrlTrfSetupHandler *****************
  5494 ;; Defined at:
  5495 ;;		line 2465 in file "../lib/usb/src/usb_device.c"
  5496 ;; Parameters:    Size  Location     Type
  5497 ;;		None
  5498 ;; Auto vars:     Size  Location     Type
  5499 ;;		None
  5500 ;; Return value:  Size  Location     Type
  5501 ;;                  1    wreg      void 
  5502 ;; Registers used:
  5503 ;;		wreg, fsr0l, fsr0h, fsr1l, fsr1h, status,2, status,0, pclath, cstack
  5504 ;; Tracked objects:
  5505 ;;		On entry : 0/0
  5506 ;;		On exit  : 0/0
  5507 ;;		Unchanged: 0/0
  5508 ;; Data sizes:     COMMON   BANK0   BANK1   BANK2   BANK3   BANK4   BANK5   BANK6   BANK7   BANK8   BANK9  BANK10  BANK1
      +1  BANK12
  5509 ;;      Params:         0       0       0       0       0       0       0       0       0       0       0       0       
      +0       0
  5510 ;;      Locals:         0       0       0       0       0       0       0       0       0       0       0       0       
      +0       0
  5511 ;;      Temps:          0       1       0       0       0       0       0       0       0       0       0       0       
      +0       0
  5512 ;;      Totals:         0       1       0       0       0       0       0       0       0       0       0       0       
      +0       0
  5513 ;;Total ram usage:        1 bytes
  5514 ;; Hardware stack levels used:    1
  5515 ;; Hardware stack levels required when called:    6
  5516 ;; This function calls:
  5517 ;;		_USBCheckStdRequest
  5518 ;;		_USBCtrlEPServiceComplete
  5519 ;;		_USER_USB_CALLBACK_EVENT_HANDLER
  5520 ;; This function is called by:
  5521 ;;		_USBCtrlEPService
  5522 ;; This function uses a non-reentrant model
  5523 ;;
  5524                           
  5525                           
  5526                           ;psect for function _USBCtrlTrfSetupHandler
  5527  0A02                     _USBCtrlTrfSetupHandler:	
  5528                           
  5529                           ;usb_device.c: 2470: shortPacketStatus = 0;
  5530                           
  5531                           ;incstack = 0
  5532                           ; Regs used in _USBCtrlTrfSetupHandler: [wreg-fsr1h+status,2+status,0+pclath+cstack]
  5533  0A02  0023               	movlb	3	; select bank3
  5534  0A03  01DF               	clrf	_shortPacketStatus^(0+384)	;volatile
  5535                           
  5536                           ;usb_device.c: 2471: USBDeferStatusStagePacket = 0;
  5537  0A04  01D3               	clrf	_USBDeferStatusStagePacket^(0+384)	;volatile
  5538                           
  5539                           ;usb_device.c: 2472: USBDeferINDataStagePackets = 0;
  5540  0A05  01D1               	clrf	_USBDeferINDataStagePackets^(0+384)	;volatile
  5541                           
  5542                           ;usb_device.c: 2473: USBDeferOUTDataStagePackets = 0;
  5543  0A06  01D2               	clrf	_USBDeferOUTDataStagePackets^(0+384)	;volatile
  5544                           
  5545                           ;usb_device.c: 2474: BothEP0OutUOWNsSet = 0;
  5546  0A07  01CE               	clrf	_BothEP0OutUOWNsSet^(0+384)	;volatile
  5547                           
  5548                           ;usb_device.c: 2475: controlTransferState = 0;
  5549  0A08  0021               	movlb	1	; select bank1
  5550  0A09  01E3               	clrf	_controlTransferState^(0+128)	;volatile
  5551                           
  5552                           ;usb_device.c: 2484: pBDTEntryIn[0]->STAT.Val &= ~(0x80);
  5553  0A0A  307F               	movlw	127
  5554  0A0B  0020               	movlb	0	; select bank0
  5555  0A0C  00EE               	movwf	??_USBCtrlTrfSetupHandler
  5556  0A0D  0023               	movlb	3	; select bank3
  5557  0A0E  0827               	movf	_pBDTEntryIn^(0+384),w
  5558  0A0F  0086               	movwf	6
  5559  0A10  0828               	movf	(_pBDTEntryIn+1)^(0+384),w
  5560  0A11  0087               	movwf	7
  5561  0A12  0020               	movlb	0	; select bank0
  5562  0A13  086E               	movf	??_USBCtrlTrfSetupHandler,w
  5563  0A14  0581               	andwf	1,f
  5564                           
  5565                           ;usb_device.c: 2486: pBDTEntryIn[0] = (volatile BDT_ENTRY*)(((uintptr_t)pBDTEntryIn[0]) 
      +                          ^ 0x0004);
  5566  0A15  3004               	movlw	4
  5567  0A16  0023               	movlb	3	; select bank3
  5568  0A17  0627               	xorwf	_pBDTEntryIn^(0+384),w
  5569  0A18  00A7               	movwf	_pBDTEntryIn^(0+384)
  5570  0A19  3000               	movlw	0
  5571  0A1A  0628               	xorwf	(_pBDTEntryIn+1)^(0+384),w
  5572  0A1B  00A8               	movwf	(_pBDTEntryIn+1)^(0+384)
  5573                           
  5574                           ;usb_device.c: 2487: pBDTEntryIn[0]->STAT.Val &= ~(0x80);
  5575  0A1C  307F               	movlw	127
  5576  0A1D  0020               	movlb	0	; select bank0
  5577  0A1E  00EE               	movwf	??_USBCtrlTrfSetupHandler
  5578  0A1F  0023               	movlb	3	; select bank3
  5579  0A20  0827               	movf	_pBDTEntryIn^(0+384),w
  5580  0A21  0086               	movwf	6
  5581  0A22  0828               	movf	(_pBDTEntryIn+1)^(0+384),w
  5582  0A23  0087               	movwf	7
  5583  0A24  0020               	movlb	0	; select bank0
  5584  0A25  086E               	movf	??_USBCtrlTrfSetupHandler,w
  5585  0A26  0581               	andwf	1,f
  5586                           
  5587                           ;usb_device.c: 2488: pBDTEntryIn[0] = (volatile BDT_ENTRY*)(((uintptr_t)pBDTEntryIn[0]) 
      +                          ^ 0x0004);
  5588  0A27  3004               	movlw	4
  5589  0A28  0023               	movlb	3	; select bank3
  5590  0A29  0627               	xorwf	_pBDTEntryIn^(0+384),w
  5591  0A2A  00A7               	movwf	_pBDTEntryIn^(0+384)
  5592  0A2B  3000               	movlw	0
  5593  0A2C  0628               	xorwf	(_pBDTEntryIn+1)^(0+384),w
  5594  0A2D  00A8               	movwf	(_pBDTEntryIn+1)^(0+384)
  5595                           
  5596                           ;usb_device.c: 2489: pBDTEntryEP0OutNext->STAT.Val &= ~(0x80);
  5597  0A2E  307F               	movlw	127
  5598  0A2F  0020               	movlb	0	; select bank0
  5599  0A30  00EE               	movwf	??_USBCtrlTrfSetupHandler
  5600  0A31  0021               	movlb	1	; select bank1
  5601  0A32  0860               	movf	_pBDTEntryEP0OutNext^(0+128),w
  5602  0A33  0086               	movwf	6
  5603  0A34  0861               	movf	(_pBDTEntryEP0OutNext+1)^(0+128),w
  5604  0A35  0087               	movwf	7
  5605  0A36  0020               	movlb	0	; select bank0
  5606  0A37  086E               	movf	??_USBCtrlTrfSetupHandler,w
  5607  0A38  0581               	andwf	1,f
  5608                           
  5609                           ;usb_device.c: 2491: inPipes[0].info.Val = 0;
  5610  0A39  0023               	movlb	3	; select bank3
  5611  0A3A  01B5               	clrf	(_inPipes^(0+384)+2)	;volatile
  5612                           
  5613                           ;usb_device.c: 2492: inPipes[0].wCount.Val = 0;
  5614  0A3B  01B6               	clrf	(_inPipes^(0+384)+3)	;volatile
  5615  0A3C  01B7               	clrf	((_inPipes+1)^(0+384)+3)	;volatile
  5616                           
  5617                           ;usb_device.c: 2493: outPipes[0].info.Val = 0;
  5618  0A3D  01A2               	clrf	(_outPipes^(0+384)+2)	;volatile
  5619                           
  5620                           ;usb_device.c: 2494: outPipes[0].wCount.Val = 0;
  5621  0A3E  01A3               	clrf	(_outPipes^(0+384)+3)	;volatile
  5622  0A3F  01A4               	clrf	((_outPipes+1)^(0+384)+3)	;volatile
  5623                           
  5624                           ;usb_device.c: 2500: USBCheckStdRequest();
  5625  0A40  3187  279A  318A   	fcall	_USBCheckStdRequest
  5626                           
  5627                           ;usb_device.c: 2501: USER_USB_CALLBACK_EVENT_HANDLER(EVENT_EP0_REQUEST,0,0);
  5628  0A43  3000               	movlw	0
  5629  0A44  0020               	movlb	0	; select bank0
  5630  0A45  00E1               	movwf	USER_USB_CALLBACK_EVENT_HANDLER@event+1
  5631  0A46  3003               	movlw	3
  5632  0A47  00E0               	movwf	USER_USB_CALLBACK_EVENT_HANDLER@event
  5633  0A48  3000               	movlw	0
  5634  0A49  00E2               	movwf	USER_USB_CALLBACK_EVENT_HANDLER@pdata
  5635  0A4A  3000               	movlw	0
  5636  0A4B  00E3               	movwf	USER_USB_CALLBACK_EVENT_HANDLER@pdata+1
  5637  0A4C  3000               	movlw	0
  5638  0A4D  00E4               	movwf	USER_USB_CALLBACK_EVENT_HANDLER@size
  5639  0A4E  00E5               	movwf	USER_USB_CALLBACK_EVENT_HANDLER@size+1
  5640  0A4F  3189  2108  318A   	fcall	_USER_USB_CALLBACK_EVENT_HANDLER
  5641                           
  5642                           ;usb_device.c: 2514: USBCtrlEPServiceComplete();
  5643  0A52  318F  276E         	fcall	_USBCtrlEPServiceComplete
  5644  0A54  0008               	return
  5645  0A55                     __end_of_USBCtrlTrfSetupHandler:	
  5646                           
  5647                           	psect	text20
  5648  0F6E                     __ptext20:	
  5649 ;; *************** function _USBCtrlEPServiceComplete *****************
  5650 ;; Defined at:
  5651 ;;		line 1616 in file "../lib/usb/src/usb_device.c"
  5652 ;; Parameters:    Size  Location     Type
  5653 ;;		None
  5654 ;; Auto vars:     Size  Location     Type
  5655 ;;		None
  5656 ;; Return value:  Size  Location     Type
  5657 ;;                  1    wreg      void 
  5658 ;; Registers used:
  5659 ;;		wreg, fsr0l, fsr0h, fsr1l, fsr1h, status,2, status,0, pclath, cstack
  5660 ;; Tracked objects:
  5661 ;;		On entry : 0/0
  5662 ;;		On exit  : 0/0
  5663 ;;		Unchanged: 0/0
  5664 ;; Data sizes:     COMMON   BANK0   BANK1   BANK2   BANK3   BANK4   BANK5   BANK6   BANK7   BANK8   BANK9  BANK10  BANK1
      +1  BANK12
  5665 ;;      Params:         0       0       0       0       0       0       0       0       0       0       0       0       
      +0       0
  5666 ;;      Locals:         0       0       0       0       0       0       0       0       0       0       0       0       
      +0       0
  5667 ;;      Temps:          2       0       0       0       0       0       0       0       0       0       0       0       
      +0       0
  5668 ;;      Totals:         2       0       0       0       0       0       0       0       0       0       0       0       
      +0       0
  5669 ;;Total ram usage:        2 bytes
  5670 ;; Hardware stack levels used:    1
  5671 ;; Hardware stack levels required when called:    2
  5672 ;; This function calls:
  5673 ;;		_USBCtrlEPAllowDataStage
  5674 ;;		_USBCtrlEPAllowStatusStage
  5675 ;; This function is called by:
  5676 ;;		_USBCtrlTrfSetupHandler
  5677 ;; This function uses a non-reentrant model
  5678 ;;
  5679                           
  5680                           
  5681                           ;psect for function _USBCtrlEPServiceComplete
  5682  0F6E                     _USBCtrlEPServiceComplete:	
  5683                           
  5684                           ;usb_device.c: 1622: UCONbits.PKTDIS = 0;
  5685                           
  5686                           ;incstack = 0
  5687                           ; Regs used in _USBCtrlEPServiceComplete: [wreg-fsr1h+status,2+status,0+pclath+cstack]
  5688  0F6E  003D               	movlb	29	; select bank29
  5689  0F6F  120E               	bcf	14,4	;volatile
  5690                           
  5691                           ;usb_device.c: 1628: if(inPipes[0].info.bits.busy == 0)
  5692  0F70  0023               	movlb	3	; select bank3
  5693  0F71  1BB5               	btfsc	(_inPipes^(0+384)+2),7	;volatile
  5694  0F72  2FB6               	goto	i1l258
  5695                           
  5696                           ;usb_device.c: 1629: {
  5697                           ;usb_device.c: 1630: if(outPipes[0].info.bits.busy == 1)
  5698  0F73  1FA2               	btfss	(_outPipes^(0+384)+2),7	;volatile
  5699  0F74  2F84               	goto	i1l3070
  5700                           
  5701                           ;usb_device.c: 1631: {
  5702                           ;usb_device.c: 1632: controlTransferState = 2;
  5703  0F75  3002               	movlw	2
  5704  0F76  00F5               	movwf	??_USBCtrlEPServiceComplete
  5705  0F77  0875               	movf	??_USBCtrlEPServiceComplete,w
  5706  0F78  0021               	movlb	1	; select bank1
  5707  0F79  00E3               	movwf	_controlTransferState^(0+128)	;volatile
  5708                           
  5709                           ;usb_device.c: 1643: if(USBDeferOUTDataStagePackets == 0)
  5710  0F7A  0023               	movlb	3	; select bank3
  5711  0F7B  0852               	movf	_USBDeferOUTDataStagePackets^(0+384),w	;volatile
  5712  0F7C  1D03               	btfss	3,2
  5713  0F7D  2F80               	goto	i1l3066
  5714                           
  5715                           ;usb_device.c: 1644: {
  5716                           ;usb_device.c: 1645: USBCtrlEPAllowDataStage();
  5717  0F7E  318B  2359         	fcall	_USBCtrlEPAllowDataStage
  5718  0F80                     i1l3066:	
  5719                           
  5720                           ;usb_device.c: 1646: }
  5721                           ;usb_device.c: 1650: USBStatusStageEnabledFlag2 = 0;
  5722  0F80  0023               	movlb	3	; select bank3
  5723  0F81  01D5               	clrf	_USBStatusStageEnabledFlag2^(0+384)	;volatile
  5724                           
  5725                           ;usb_device.c: 1651: USBStatusStageEnabledFlag1 = 0;
  5726  0F82  01D4               	clrf	_USBStatusStageEnabledFlag1^(0+384)	;volatile
  5727                           
  5728                           ;usb_device.c: 1652: }
  5729  0F83  0008               	return
  5730  0F84                     i1l3070:	
  5731                           
  5732                           ;usb_device.c: 1653: else
  5733                           ;usb_device.c: 1654: {
  5734                           ;usb_device.c: 1659: pBDTEntryEP0OutNext->CNT = 8;
  5735  0F84  0021               	movlb	1	; select bank1
  5736  0F85  0860               	movf	_pBDTEntryEP0OutNext^(0+128),w
  5737  0F86  3E01               	addlw	1
  5738  0F87  00F5               	movwf	??_USBCtrlEPServiceComplete
  5739  0F88  3000               	movlw	0
  5740  0F89  3D61               	addwfc	(_pBDTEntryEP0OutNext+1)^(0+128),w
  5741  0F8A  00F6               	movwf	??_USBCtrlEPServiceComplete+1
  5742  0F8B  0875               	movf	??_USBCtrlEPServiceComplete,w
  5743  0F8C  0086               	movwf	6
  5744  0F8D  0876               	movf	??_USBCtrlEPServiceComplete+1,w
  5745  0F8E  0087               	movwf	7
  5746  0F8F  3008               	movlw	8
  5747  0F90  0081               	movwf	1
  5748                           
  5749                           ;usb_device.c: 1660: pBDTEntryEP0OutNext->ADR = (((uint16_t)(&SetupPkt)) & 0x7FFF);
  5750  0F91  3050               	movlw	80
  5751  0F92  00F5               	movwf	??_USBCtrlEPServiceComplete
  5752  0F93  3000               	movlw	0
  5753  0F94  00F6               	movwf	??_USBCtrlEPServiceComplete+1
  5754  0F95  0860               	movf	_pBDTEntryEP0OutNext^(0+128),w
  5755  0F96  0086               	movwf	6
  5756  0F97  0861               	movf	(_pBDTEntryEP0OutNext+1)^(0+128),w
  5757  0F98  0087               	movwf	7
  5758  0F99  3142               	addfsr 1,2
  5759  0F9A  0875               	movf	??_USBCtrlEPServiceComplete,w
  5760  0F9B  3FC0               	movwi [0]fsr1
  5761  0F9C  0876               	movf	??_USBCtrlEPServiceComplete+1,w
  5762  0F9D  3FC1               	movwi [1]fsr1
  5763                           
  5764                           ;usb_device.c: 1661: pBDTEntryEP0OutNext->STAT.Val = 0x00|(0x08 & 0x08)|0x04;
  5765  0F9E  0860               	movf	_pBDTEntryEP0OutNext^(0+128),w
  5766  0F9F  0086               	movwf	6
  5767  0FA0  0861               	movf	(_pBDTEntryEP0OutNext+1)^(0+128),w
  5768  0FA1  0087               	movwf	7
  5769  0FA2  300C               	movlw	12
  5770  0FA3  0081               	movwf	1
  5771                           
  5772                           ;usb_device.c: 1662: pBDTEntryEP0OutNext->STAT.Val |= 0x80;
  5773  0FA4  0860               	movf	_pBDTEntryEP0OutNext^(0+128),w
  5774  0FA5  0086               	movwf	6
  5775  0FA6  0861               	movf	(_pBDTEntryEP0OutNext+1)^(0+128),w
  5776  0FA7  0087               	movwf	7
  5777  0FA8  1781               	bsf	1,7
  5778                           
  5779                           ;usb_device.c: 1663: pBDTEntryIn[0]->STAT.Val = 0x04;
  5780  0FA9  0023               	movlb	3	; select bank3
  5781  0FAA  0827               	movf	_pBDTEntryIn^(0+384),w
  5782  0FAB  0086               	movwf	6
  5783  0FAC  0828               	movf	(_pBDTEntryIn+1)^(0+384),w
  5784  0FAD  0087               	movwf	7
  5785  0FAE  3004               	movlw	4
  5786  0FAF  0081               	movwf	1
  5787                           
  5788                           ;usb_device.c: 1664: pBDTEntryIn[0]->STAT.Val |= 0x80;
  5789  0FB0  0827               	movf	_pBDTEntryIn^(0+384),w
  5790  0FB1  0086               	movwf	6
  5791  0FB2  0828               	movf	(_pBDTEntryIn+1)^(0+384),w
  5792  0FB3  0087               	movwf	7
  5793  0FB4  1781               	bsf	1,7
  5794                           
  5795                           ;usb_device.c: 1665: }
  5796                           ;usb_device.c: 1666: }
  5797  0FB5  0008               	return
  5798  0FB6                     i1l258:	
  5799                           
  5800                           ;usb_device.c: 1667: else
  5801                           ;usb_device.c: 1668: {
  5802                           ;usb_device.c: 1669: if(SetupPkt.DataDir == (0x80>>7))
  5803  0FB6  0020               	movlb	0	; select bank0
  5804  0FB7  1FD0               	btfss	80,7	;volatile
  5805  0FB8  2FCE               	goto	i1l3096
  5806                           
  5807                           ;usb_device.c: 1670: {
  5808                           ;usb_device.c: 1671: controlTransferState = 1;
  5809  0FB9  3001               	movlw	1
  5810  0FBA  00F5               	movwf	??_USBCtrlEPServiceComplete
  5811  0FBB  0875               	movf	??_USBCtrlEPServiceComplete,w
  5812  0FBC  0021               	movlb	1	; select bank1
  5813  0FBD  00E3               	movwf	_controlTransferState^(0+128)	;volatile
  5814                           
  5815                           ;usb_device.c: 1685: if(USBDeferINDataStagePackets == 0)
  5816  0FBE  0023               	movlb	3	; select bank3
  5817  0FBF  0851               	movf	_USBDeferINDataStagePackets^(0+384),w	;volatile
  5818  0FC0  1D03               	btfss	3,2
  5819  0FC1  2FC5               	goto	i1l3088
  5820                           
  5821                           ;usb_device.c: 1686: {
  5822                           ;usb_device.c: 1687: USBCtrlEPAllowDataStage();
  5823  0FC2  318B  2359  318F   	fcall	_USBCtrlEPAllowDataStage
  5824  0FC5                     i1l3088:	
  5825                           
  5826                           ;usb_device.c: 1688: }
  5827                           ;usb_device.c: 1710: USBStatusStageEnabledFlag2 = 0;
  5828  0FC5  0023               	movlb	3	; select bank3
  5829  0FC6  01D5               	clrf	_USBStatusStageEnabledFlag2^(0+384)	;volatile
  5830                           
  5831                           ;usb_device.c: 1711: USBStatusStageEnabledFlag1 = 0;
  5832  0FC7  01D4               	clrf	_USBStatusStageEnabledFlag1^(0+384)	;volatile
  5833                           
  5834                           ;usb_device.c: 1712: if(USBDeferStatusStagePacket == 0)
  5835  0FC8  0853               	movf	_USBDeferStatusStagePacket^(0+384),w	;volatile
  5836  0FC9  1D03               	btfss	3,2
  5837  0FCA  0008               	return
  5838                           
  5839                           ;usb_device.c: 1713: {
  5840                           ;usb_device.c: 1714: USBCtrlEPAllowStatusStage();
  5841  0FCB  318C  24E8         	fcall	_USBCtrlEPAllowStatusStage
  5842                           
  5843                           ;usb_device.c: 1715: }
  5844                           ;usb_device.c: 1716: }
  5845  0FCD  0008               	return
  5846  0FCE                     i1l3096:	
  5847                           
  5848                           ;usb_device.c: 1717: else
  5849                           ;usb_device.c: 1718: {
  5850                           ;usb_device.c: 1729: controlTransferState = 2;
  5851  0FCE  3002               	movlw	2
  5852  0FCF  00F5               	movwf	??_USBCtrlEPServiceComplete
  5853  0FD0  0875               	movf	??_USBCtrlEPServiceComplete,w
  5854  0FD1  0021               	movlb	1	; select bank1
  5855  0FD2  00E3               	movwf	_controlTransferState^(0+128)	;volatile
  5856                           
  5857                           ;usb_device.c: 1732: pBDTEntryEP0OutNext->CNT = 8;
  5858  0FD3  0860               	movf	_pBDTEntryEP0OutNext^(0+128),w
  5859  0FD4  3E01               	addlw	1
  5860  0FD5  00F5               	movwf	??_USBCtrlEPServiceComplete
  5861  0FD6  3000               	movlw	0
  5862  0FD7  3D61               	addwfc	(_pBDTEntryEP0OutNext+1)^(0+128),w
  5863  0FD8  00F6               	movwf	??_USBCtrlEPServiceComplete+1
  5864  0FD9  0875               	movf	??_USBCtrlEPServiceComplete,w
  5865  0FDA  0086               	movwf	6
  5866  0FDB  0876               	movf	??_USBCtrlEPServiceComplete+1,w
  5867  0FDC  0087               	movwf	7
  5868  0FDD  3008               	movlw	8
  5869  0FDE  0081               	movwf	1
  5870                           
  5871                           ;usb_device.c: 1733: pBDTEntryEP0OutNext->ADR = (((uint16_t)(&SetupPkt)) & 0x7FFF);
  5872  0FDF  3050               	movlw	80
  5873  0FE0  00F5               	movwf	??_USBCtrlEPServiceComplete
  5874  0FE1  3000               	movlw	0
  5875  0FE2  00F6               	movwf	??_USBCtrlEPServiceComplete+1
  5876  0FE3  0860               	movf	_pBDTEntryEP0OutNext^(0+128),w
  5877  0FE4  0086               	movwf	6
  5878  0FE5  0861               	movf	(_pBDTEntryEP0OutNext+1)^(0+128),w
  5879  0FE6  0087               	movwf	7
  5880  0FE7  3142               	addfsr 1,2
  5881  0FE8  0875               	movf	??_USBCtrlEPServiceComplete,w
  5882  0FE9  3FC0               	movwi [0]fsr1
  5883  0FEA  0876               	movf	??_USBCtrlEPServiceComplete+1,w
  5884  0FEB  3FC1               	movwi [1]fsr1
  5885                           
  5886                           ;usb_device.c: 1734: pBDTEntryEP0OutNext->STAT.Val = 0x04;
  5887  0FEC  0860               	movf	_pBDTEntryEP0OutNext^(0+128),w
  5888  0FED  0086               	movwf	6
  5889  0FEE  0861               	movf	(_pBDTEntryEP0OutNext+1)^(0+128),w
  5890  0FEF  0087               	movwf	7
  5891  0FF0  3004               	movlw	4
  5892  0FF1  0081               	movwf	1
  5893                           
  5894                           ;usb_device.c: 1735: pBDTEntryEP0OutNext->STAT.Val |= 0x80;
  5895  0FF2  0860               	movf	_pBDTEntryEP0OutNext^(0+128),w
  5896  0FF3  0086               	movwf	6
  5897  0FF4  0861               	movf	(_pBDTEntryEP0OutNext+1)^(0+128),w
  5898  0FF5  0087               	movwf	7
  5899  0FF6  1781               	bsf	1,7
  5900                           
  5901                           ;usb_device.c: 1738: USBStatusStageEnabledFlag2 = 0;
  5902  0FF7  0023               	movlb	3	; select bank3
  5903  0FF8  01D5               	clrf	_USBStatusStageEnabledFlag2^(0+384)	;volatile
  5904                           
  5905                           ;usb_device.c: 1739: USBStatusStageEnabledFlag1 = 0;
  5906  0FF9  01D4               	clrf	_USBStatusStageEnabledFlag1^(0+384)	;volatile
  5907                           
  5908                           ;usb_device.c: 1740: if(USBDeferStatusStagePacket == 0)
  5909  0FFA  0853               	movf	_USBDeferStatusStagePacket^(0+384),w	;volatile
  5910  0FFB  1D03               	btfss	3,2
  5911  0FFC  0008               	return
  5912                           
  5913                           ;usb_device.c: 1741: {
  5914                           ;usb_device.c: 1742: USBCtrlEPAllowStatusStage();
  5915  0FFD  318C  24E8         	fcall	_USBCtrlEPAllowStatusStage
  5916  0FFF  0008               	return
  5917  1000                     __end_of_USBCtrlEPServiceComplete:	
  5918                           
  5919                           	psect	text21
  5920  0B59                     __ptext21:	
  5921 ;; *************** function _USBCtrlEPAllowDataStage *****************
  5922 ;; Defined at:
  5923 ;;		line 1488 in file "../lib/usb/src/usb_device.c"
  5924 ;; Parameters:    Size  Location     Type
  5925 ;;		None
  5926 ;; Auto vars:     Size  Location     Type
  5927 ;;		None
  5928 ;; Return value:  Size  Location     Type
  5929 ;;                  1    wreg      void 
  5930 ;; Registers used:
  5931 ;;		wreg, fsr0l, fsr0h, fsr1l, fsr1h, status,2, status,0, pclath, cstack
  5932 ;; Tracked objects:
  5933 ;;		On entry : 0/0
  5934 ;;		On exit  : 0/0
  5935 ;;		Unchanged: 0/0
  5936 ;; Data sizes:     COMMON   BANK0   BANK1   BANK2   BANK3   BANK4   BANK5   BANK6   BANK7   BANK8   BANK9  BANK10  BANK1
      +1  BANK12
  5937 ;;      Params:         0       0       0       0       0       0       0       0       0       0       0       0       
      +0       0
  5938 ;;      Locals:         0       0       0       0       0       0       0       0       0       0       0       0       
      +0       0
  5939 ;;      Temps:          2       0       0       0       0       0       0       0       0       0       0       0       
      +0       0
  5940 ;;      Totals:         2       0       0       0       0       0       0       0       0       0       0       0       
      +0       0
  5941 ;;Total ram usage:        2 bytes
  5942 ;; Hardware stack levels used:    1
  5943 ;; Hardware stack levels required when called:    1
  5944 ;; This function calls:
  5945 ;;		_USBCtrlTrfTxService
  5946 ;; This function is called by:
  5947 ;;		_USBCtrlEPServiceComplete
  5948 ;; This function uses a non-reentrant model
  5949 ;;
  5950                           
  5951                           
  5952                           ;psect for function _USBCtrlEPAllowDataStage
  5953  0B59                     _USBCtrlEPAllowDataStage:	
  5954                           
  5955                           ;usb_device.c: 1490: USBDeferINDataStagePackets = 0;
  5956                           
  5957                           ;incstack = 0
  5958                           ; Regs used in _USBCtrlEPAllowDataStage: [wreg-fsr1h+status,2+status,0+pclath+cstack]
  5959  0B59  0023               	movlb	3	; select bank3
  5960  0B5A  01D1               	clrf	_USBDeferINDataStagePackets^(0+384)	;volatile
  5961                           
  5962                           ;usb_device.c: 1491: USBDeferOUTDataStagePackets = 0;
  5963  0B5B  01D2               	clrf	_USBDeferOUTDataStagePackets^(0+384)	;volatile
  5964                           
  5965                           ;usb_device.c: 1493: if(controlTransferState == 2)
  5966  0B5C  3002               	movlw	2
  5967  0B5D  0021               	movlb	1	; select bank1
  5968  0B5E  0663               	xorwf	_controlTransferState^(0+128),w	;volatile
  5969  0B5F  1D03               	btfss	3,2
  5970  0B60  2B86               	goto	i1l2848
  5971                           
  5972                           ;usb_device.c: 1494: {
  5973                           ;usb_device.c: 1496: pBDTEntryEP0OutNext->CNT = 8;
  5974  0B61  0860               	movf	_pBDTEntryEP0OutNext^(0+128),w
  5975  0B62  3E01               	addlw	1
  5976  0B63  00F3               	movwf	??_USBCtrlEPAllowDataStage
  5977  0B64  3000               	movlw	0
  5978  0B65  3D61               	addwfc	(_pBDTEntryEP0OutNext+1)^(0+128),w
  5979  0B66  00F4               	movwf	??_USBCtrlEPAllowDataStage+1
  5980  0B67  0873               	movf	??_USBCtrlEPAllowDataStage,w
  5981  0B68  0086               	movwf	6
  5982  0B69  0874               	movf	??_USBCtrlEPAllowDataStage+1,w
  5983  0B6A  0087               	movwf	7
  5984  0B6B  3008               	movlw	8
  5985  0B6C  0081               	movwf	1
  5986                           
  5987                           ;usb_device.c: 1497: pBDTEntryEP0OutNext->ADR = (((uint16_t)(&CtrlTrfData)) & 0x7FFF);
  5988  0B6D  3058               	movlw	88
  5989  0B6E  00F3               	movwf	??_USBCtrlEPAllowDataStage
  5990  0B6F  3000               	movlw	0
  5991  0B70  00F4               	movwf	??_USBCtrlEPAllowDataStage+1
  5992  0B71  0860               	movf	_pBDTEntryEP0OutNext^(0+128),w
  5993  0B72  0086               	movwf	6
  5994  0B73  0861               	movf	(_pBDTEntryEP0OutNext+1)^(0+128),w
  5995  0B74  0087               	movwf	7
  5996  0B75  3142               	addfsr 1,2
  5997  0B76  0873               	movf	??_USBCtrlEPAllowDataStage,w
  5998  0B77  3FC0               	movwi [0]fsr1
  5999  0B78  0874               	movf	??_USBCtrlEPAllowDataStage+1,w
  6000  0B79  3FC1               	movwi [1]fsr1
  6001                           
  6002                           ;usb_device.c: 1498: pBDTEntryEP0OutNext->STAT.Val = 0x40|(0x08 & 0x08);
  6003  0B7A  0860               	movf	_pBDTEntryEP0OutNext^(0+128),w
  6004  0B7B  0086               	movwf	6
  6005  0B7C  0861               	movf	(_pBDTEntryEP0OutNext+1)^(0+128),w
  6006  0B7D  0087               	movwf	7
  6007  0B7E  3048               	movlw	72
  6008  0B7F  0081               	movwf	1
  6009                           
  6010                           ;usb_device.c: 1499: pBDTEntryEP0OutNext->STAT.Val |= 0x80;
  6011  0B80  0860               	movf	_pBDTEntryEP0OutNext^(0+128),w
  6012  0B81  0086               	movwf	6
  6013  0B82  0861               	movf	(_pBDTEntryEP0OutNext+1)^(0+128),w
  6014  0B83  0087               	movwf	7
  6015  0B84  1781               	bsf	1,7
  6016                           
  6017                           ;usb_device.c: 1500: }
  6018  0B85  0008               	return
  6019  0B86                     i1l2848:	
  6020                           
  6021                           ;usb_device.c: 1501: else
  6022                           ;usb_device.c: 1502: {
  6023                           ;usb_device.c: 1505: if(SetupPkt.wLength < inPipes[0].wCount.Val)
  6024  0B86  0023               	movlb	3	; select bank3
  6025  0B87  0837               	movf	((_inPipes+1)^(0+384)+3),w	;volatile
  6026  0B88  0020               	movlb	0	; select bank0
  6027  0B89  0257               	subwf	87,w	;volatile
  6028  0B8A  1D03               	skipz
  6029  0B8B  2B90               	goto	u208_25
  6030  0B8C  0023               	movlb	3	; select bank3
  6031  0B8D  0836               	movf	(_inPipes^(0+384)+3),w	;volatile
  6032  0B8E  0020               	movlb	0	; select bank0
  6033  0B8F  0256               	subwf	86,w	;volatile
  6034  0B90                     u208_25:	
  6035  0B90  1803               	skipnc
  6036  0B91  2B99               	goto	i1l2852
  6037                           
  6038                           ;usb_device.c: 1506: {
  6039                           ;usb_device.c: 1507: inPipes[0].wCount.Val = SetupPkt.wLength;
  6040  0B92  0857               	movf	87,w	;volatile
  6041  0B93  0023               	movlb	3	; select bank3
  6042  0B94  00B7               	movwf	((_inPipes+1)^(0+384)+3)	;volatile
  6043  0B95  0020               	movlb	0	; select bank0
  6044  0B96  0856               	movf	86,w	;volatile
  6045  0B97  0023               	movlb	3	; select bank3
  6046  0B98  00B6               	movwf	(_inPipes^(0+384)+3)	;volatile
  6047  0B99                     i1l2852:	
  6048                           
  6049                           ;usb_device.c: 1508: }
  6050                           ;usb_device.c: 1509: USBCtrlTrfTxService();
  6051  0B99  318C  2414         	fcall	_USBCtrlTrfTxService
  6052                           
  6053                           ;usb_device.c: 1514: pBDTEntryIn[0]->ADR = (((uint16_t)(&CtrlTrfData)) & 0x7FFF);
  6054  0B9B  3058               	movlw	88
  6055  0B9C  00F3               	movwf	??_USBCtrlEPAllowDataStage
  6056  0B9D  3000               	movlw	0
  6057  0B9E  00F4               	movwf	??_USBCtrlEPAllowDataStage+1
  6058  0B9F  0023               	movlb	3	; select bank3
  6059  0BA0  0827               	movf	_pBDTEntryIn^(0+384),w
  6060  0BA1  0086               	movwf	6
  6061  0BA2  0828               	movf	(_pBDTEntryIn+1)^(0+384),w
  6062  0BA3  0087               	movwf	7
  6063  0BA4  3142               	addfsr 1,2
  6064  0BA5  0873               	movf	??_USBCtrlEPAllowDataStage,w
  6065  0BA6  3FC0               	movwi [0]fsr1
  6066  0BA7  0874               	movf	??_USBCtrlEPAllowDataStage+1,w
  6067  0BA8  3FC1               	movwi [1]fsr1
  6068                           
  6069                           ;usb_device.c: 1515: pBDTEntryIn[0]->STAT.Val = 0x40|(0x08 & 0x08);
  6070  0BA9  0827               	movf	_pBDTEntryIn^(0+384),w
  6071  0BAA  0086               	movwf	6
  6072  0BAB  0828               	movf	(_pBDTEntryIn+1)^(0+384),w
  6073  0BAC  0087               	movwf	7
  6074  0BAD  3048               	movlw	72
  6075  0BAE  0081               	movwf	1
  6076                           
  6077                           ;usb_device.c: 1516: pBDTEntryIn[0]->STAT.Val |= 0x80;
  6078  0BAF  0827               	movf	_pBDTEntryIn^(0+384),w
  6079  0BB0  0086               	movwf	6
  6080  0BB1  0828               	movf	(_pBDTEntryIn+1)^(0+384),w
  6081  0BB2  0087               	movwf	7
  6082  0BB3  1781               	bsf	1,7
  6083  0BB4  0008               	return
  6084  0BB5                     __end_of_USBCtrlEPAllowDataStage:	
  6085                           
  6086                           	psect	text22
  6087  079A                     __ptext22:	
  6088 ;; *************** function _USBCheckStdRequest *****************
  6089 ;; Defined at:
  6090 ;;		line 2686 in file "../lib/usb/src/usb_device.c"
  6091 ;; Parameters:    Size  Location     Type
  6092 ;;		None
  6093 ;; Auto vars:     Size  Location     Type
  6094 ;;		None
  6095 ;; Return value:  Size  Location     Type
  6096 ;;                  1    wreg      void 
  6097 ;; Registers used:
  6098 ;;		wreg, fsr0l, fsr0h, fsr1l, fsr1h, status,2, status,0, pclath, cstack
  6099 ;; Tracked objects:
  6100 ;;		On entry : 0/0
  6101 ;;		On exit  : 0/0
  6102 ;;		Unchanged: 0/0
  6103 ;; Data sizes:     COMMON   BANK0   BANK1   BANK2   BANK3   BANK4   BANK5   BANK6   BANK7   BANK8   BANK9  BANK10  BANK1
      +1  BANK12
  6104 ;;      Params:         0       0       0       0       0       0       0       0       0       0       0       0       
      +0       0
  6105 ;;      Locals:         0       0       0       0       0       0       0       0       0       0       0       0       
      +0       0
  6106 ;;      Temps:          0       1       0       0       0       0       0       0       0       0       0       0       
      +0       0
  6107 ;;      Totals:         0       1       0       0       0       0       0       0       0       0       0       0       
      +0       0
  6108 ;;Total ram usage:        1 bytes
  6109 ;; Hardware stack levels used:    1
  6110 ;; Hardware stack levels required when called:    5
  6111 ;; This function calls:
  6112 ;;		_USBStdFeatureReqHandler
  6113 ;;		_USBStdGetDscHandler
  6114 ;;		_USBStdGetStatusHandler
  6115 ;;		_USBStdSetCfgHandler
  6116 ;;		_USER_USB_CALLBACK_EVENT_HANDLER
  6117 ;; This function is called by:
  6118 ;;		_USBCtrlTrfSetupHandler
  6119 ;; This function uses a non-reentrant model
  6120 ;;
  6121                           
  6122                           
  6123                           ;psect for function _USBCheckStdRequest
  6124  079A                     _USBCheckStdRequest:	
  6125                           
  6126                           ;usb_device.c: 2688: if(SetupPkt.RequestType != (0x00>>5)) return;
  6127                           
  6128                           ;incstack = 0
  6129                           ; Regs used in _USBCheckStdRequest: [wreg-fsr1h+status,2+status,0+pclath+cstack]
  6130  079A  0020               	movlb	0	; select bank0
  6131  079B  0E50               	swapf	80,w	;volatile
  6132  079C  0C89               	rrf	9,f
  6133  079D  3903               	andlw	3
  6134  079E  3A00               	xorlw	0
  6135  079F  1D03               	btfss	3,2
  6136  07A0  0008               	return
  6137  07A1  2FF0               	goto	i1l3190
  6138  07A2                     i1l385:	
  6139                           ;usb_device.c: 2691: {
  6140                           ;usb_device.c: 2692: case 5:
  6141                           
  6142                           ;usb_device.c: 2690: switch(SetupPkt.bRequest)
  6143                           
  6144                           
  6145                           ;usb_device.c: 2693: inPipes[0].info.bits.busy = 1;
  6146  07A2  0023               	movlb	3	; select bank3
  6147  07A3  17B5               	bsf	(_inPipes^(0+384)+2),7	;volatile
  6148                           
  6149                           ;usb_device.c: 2694: USBDeviceState = ADR_PENDING_STATE;
  6150  07A4  3008               	movlw	8
  6151  07A5  0020               	movlb	0	; select bank0
  6152  07A6  00ED               	movwf	??_USBCheckStdRequest
  6153  07A7  086D               	movf	??_USBCheckStdRequest,w
  6154  07A8  0021               	movlb	1	; select bank1
  6155  07A9  00E2               	movwf	_USBDeviceState^(0+128)	;volatile
  6156                           
  6157                           ;usb_device.c: 2696: break;
  6158  07AA  0008               	return
  6159  07AB                     i1l3160:	
  6160                           ;usb_device.c: 2697: case 6:
  6161                           
  6162                           
  6163                           ;usb_device.c: 2698: USBStdGetDscHandler();
  6164  07AB  318D  255A         	fcall	_USBStdGetDscHandler
  6165                           
  6166                           ;usb_device.c: 2699: break;
  6167  07AD  0008               	return
  6168  07AE                     i1l3162:	
  6169                           ;usb_device.c: 2700: case 9:
  6170                           
  6171                           
  6172                           ;usb_device.c: 2701: USBStdSetCfgHandler();
  6173  07AE  318E  26E0         	fcall	_USBStdSetCfgHandler
  6174                           
  6175                           ;usb_device.c: 2702: break;
  6176  07B0  0008               	return
  6177  07B1                     i1l3164:	
  6178                           ;usb_device.c: 2703: case 8:
  6179                           
  6180                           
  6181                           ;usb_device.c: 2704: inPipes[0].pSrc.bRam = (uint8_t*)&USBActiveConfiguration;
  6182  07B1  30E9               	movlw	low _USBActiveConfiguration
  6183  07B2  0023               	movlb	3	; select bank3
  6184  07B3  00B3               	movwf	_inPipes^(0+384)	;volatile
  6185  07B4  3001               	movlw	high _USBActiveConfiguration
  6186  07B5  00B4               	movwf	(_inPipes+1)^(0+384)	;volatile
  6187                           
  6188                           ;usb_device.c: 2705: inPipes[0].info.bits.ctrl_trf_mem = 0x01;
  6189  07B6  1435               	bsf	(_inPipes^(0+384)+2),0	;volatile
  6190                           
  6191                           ;usb_device.c: 2706: inPipes[0].wCount.v[0] = 1;
  6192  07B7  3001               	movlw	1
  6193  07B8  0020               	movlb	0	; select bank0
  6194  07B9  00ED               	movwf	??_USBCheckStdRequest
  6195  07BA  086D               	movf	??_USBCheckStdRequest,w
  6196  07BB  0023               	movlb	3	; select bank3
  6197  07BC  00B6               	movwf	(_inPipes^(0+384)+3)	;volatile
  6198                           
  6199                           ;usb_device.c: 2707: inPipes[0].info.bits.busy = 1;
  6200  07BD  17B5               	bsf	(_inPipes^(0+384)+2),7	;volatile
  6201                           
  6202                           ;usb_device.c: 2708: break;
  6203  07BE  0008               	return
  6204  07BF                     i1l3172:	
  6205                           ;usb_device.c: 2709: case 0:
  6206                           
  6207                           
  6208                           ;usb_device.c: 2710: USBStdGetStatusHandler();
  6209  07BF  318A  22A9         	fcall	_USBStdGetStatusHandler
  6210                           
  6211                           ;usb_device.c: 2711: break;
  6212  07C1  0008               	return
  6213  07C2                     i1l3174:	
  6214                           ;usb_device.c: 2712: case 1:
  6215                           
  6216                           
  6217                           ;usb_device.c: 2713: case 3:
  6218                           ;usb_device.c: 2714: USBStdFeatureReqHandler();
  6219  07C2  3181  21EF         	fcall	_USBStdFeatureReqHandler
  6220                           
  6221                           ;usb_device.c: 2715: break;
  6222  07C4  0008               	return
  6223  07C5                     i1l3176:	
  6224                           ;usb_device.c: 2716: case 10:
  6225                           
  6226                           
  6227                           ;usb_device.c: 2717: inPipes[0].pSrc.bRam = (uint8_t*)&USBAlternateInterface[SetupPkt.bI
      +                          ntfID];
  6228  07C5  0020               	movlb	0	; select bank0
  6229  07C6  0854               	movf	84,w	;volatile
  6230  07C7  3EE7               	addlw	(low (_USBAlternateInterface| (0+256)))& (0+255)
  6231  07C8  0023               	movlb	3	; select bank3
  6232  07C9  00B3               	movwf	_inPipes^(0+384)	;volatile
  6233  07CA  3001               	movlw	1
  6234  07CB  00B4               	movwf	(_inPipes+1)^(0+384)	;volatile
  6235                           
  6236                           ;usb_device.c: 2718: inPipes[0].info.bits.ctrl_trf_mem = 0x01;
  6237  07CC  1435               	bsf	(_inPipes^(0+384)+2),0	;volatile
  6238                           
  6239                           ;usb_device.c: 2719: inPipes[0].wCount.v[0] = 1;
  6240  07CD  3001               	movlw	1
  6241  07CE  0020               	movlb	0	; select bank0
  6242  07CF  00ED               	movwf	??_USBCheckStdRequest
  6243  07D0  086D               	movf	??_USBCheckStdRequest,w
  6244  07D1  0023               	movlb	3	; select bank3
  6245  07D2  00B6               	movwf	(_inPipes^(0+384)+3)	;volatile
  6246                           
  6247                           ;usb_device.c: 2720: inPipes[0].info.bits.busy = 1;
  6248  07D3  17B5               	bsf	(_inPipes^(0+384)+2),7	;volatile
  6249                           
  6250                           ;usb_device.c: 2721: break;
  6251  07D4  0008               	return
  6252  07D5                     i1l394:	
  6253                           ;usb_device.c: 2722: case 11:
  6254                           
  6255                           
  6256                           ;usb_device.c: 2723: inPipes[0].info.bits.busy = 1;
  6257  07D5  0023               	movlb	3	; select bank3
  6258  07D6  17B5               	bsf	(_inPipes^(0+384)+2),7	;volatile
  6259                           
  6260                           ;usb_device.c: 2724: USBAlternateInterface[SetupPkt.bIntfID] = SetupPkt.bAltID;
  6261  07D7  0020               	movlb	0	; select bank0
  6262  07D8  0852               	movf	82,w	;volatile
  6263  07D9  00ED               	movwf	??_USBCheckStdRequest
  6264  07DA  0854               	movf	84,w	;volatile
  6265  07DB  3EE7               	addlw	(low (_USBAlternateInterface| (0+256)))& (0+255)
  6266  07DC  0086               	movwf	6
  6267  07DD  3001               	movlw	1	; select bank3/4
  6268  07DE  0087               	movwf	7
  6269  07DF  086D               	movf	??_USBCheckStdRequest,w
  6270  07E0  0081               	movwf	1
  6271                           
  6272                           ;usb_device.c: 2725: break;
  6273  07E1  0008               	return
  6274  07E2                     i1l3186:	
  6275                           ;usb_device.c: 2726: case 7:
  6276                           
  6277                           
  6278                           ;usb_device.c: 2727: USER_USB_CALLBACK_EVENT_HANDLER(EVENT_SET_DESCRIPTOR,0,0);
  6279  07E2  3000               	movlw	0
  6280  07E3  00E1               	movwf	USER_USB_CALLBACK_EVENT_HANDLER@event+1
  6281  07E4  3002               	movlw	2
  6282  07E5  00E0               	movwf	USER_USB_CALLBACK_EVENT_HANDLER@event
  6283  07E6  3000               	movlw	0
  6284  07E7  00E2               	movwf	USER_USB_CALLBACK_EVENT_HANDLER@pdata
  6285  07E8  3000               	movlw	0
  6286  07E9  00E3               	movwf	USER_USB_CALLBACK_EVENT_HANDLER@pdata+1
  6287  07EA  3000               	movlw	0
  6288  07EB  00E4               	movwf	USER_USB_CALLBACK_EVENT_HANDLER@size
  6289  07EC  00E5               	movwf	USER_USB_CALLBACK_EVENT_HANDLER@size+1
  6290  07ED  3189  2108         	fcall	_USER_USB_CALLBACK_EVENT_HANDLER
  6291                           
  6292                           ;usb_device.c: 2732: }
  6293                           
  6294                           ;usb_device.c: 2731: break;
  6295                           
  6296                           ;usb_device.c: 2730: default:
  6297                           
  6298                           ;usb_device.c: 2729: case 12:
  6299                           
  6300                           ;usb_device.c: 2728: break;
  6301  07EF  0008               	return
  6302  07F0                     i1l3190:	
  6303  07F0  0020               	movlb	0	; select bank0
  6304  07F1  0851               	movf	81,w	;volatile
  6305                           
  6306                           ; Switch size 1, requested type "space"
  6307                           ; Number of cases is 11, Range of values is 0 to 12
  6308                           ; switch strategies available:
  6309                           ; Name         Instructions Cycles
  6310                           ; direct_byte           32     6 (fixed)
  6311                           ; simple_byte           34    18 (average)
  6312                           ; jumptable            260     6 (fixed)
  6313                           ;	Chosen strategy is direct_byte
  6314  07F2  0084               	movwf	4
  6315  07F3  300D               	movlw	13
  6316  07F4  0204               	subwf	4,w
  6317  07F5  1803               	skipnc
  6318  07F6  0008               	return
  6319  07F7  3190               	movlp	high i1S4570
  6320  07F8  3504               	lslf	4,w
  6321  07F9  3E00               	addlw	low i1S4570
  6322  07FA  0082               	movwf	2
  6323  07FB                     i1l383:	
  6324  07FB  0008               	return
  6325  07FC                     __end_of_USBCheckStdRequest:	
  6326                           
  6327                           	psect	swtext1
  6328  1000                     __pswtext1:	
  6329  1000                     i1S4570:	
  6330  1000  3187  2FBF         	ljmp	i1l3172
  6331  1002  3187  2FC2         	ljmp	i1l3174
  6332  1004  3187  2FFB         	ljmp	i1l383
  6333  1006  3187  2FC2         	ljmp	i1l3174
  6334  1008  3187  2FFB         	ljmp	i1l383
  6335  100A  3187  2FA2         	ljmp	i1l385
  6336  100C  3187  2FAB         	ljmp	i1l3160
  6337  100E  3187  2FE2         	ljmp	i1l3186
  6338  1010  3187  2FB1         	ljmp	i1l3164
  6339  1012  3187  2FAE         	ljmp	i1l3162
  6340  1014  3187  2FC5         	ljmp	i1l3176
  6341  1016  3187  2FD5         	ljmp	i1l394
  6342  1018  3187  2FFB         	ljmp	i1l383
  6343                           
  6344                           	psect	text23
  6345  0EE0                     __ptext23:	
  6346 ;; *************** function _USBStdSetCfgHandler *****************
  6347 ;; Defined at:
  6348 ;;		line 1968 in file "../lib/usb/src/usb_device.c"
  6349 ;; Parameters:    Size  Location     Type
  6350 ;;		None
  6351 ;; Auto vars:     Size  Location     Type
  6352 ;;  p               2    7[BANK0 ] PTR unsigned char 
  6353 ;;		 -> UEP1(1), 
  6354 ;;  i               1    9[BANK0 ] unsigned char 
  6355 ;;  i               1   10[BANK0 ] unsigned char 
  6356 ;; Return value:  Size  Location     Type
  6357 ;;                  1    wreg      void 
  6358 ;; Registers used:
  6359 ;;		wreg, fsr0l, fsr0h, fsr1l, fsr1h, status,2, status,0, pclath, cstack
  6360 ;; Tracked objects:
  6361 ;;		On entry : 0/0
  6362 ;;		On exit  : 0/0
  6363 ;;		Unchanged: 0/0
  6364 ;; Data sizes:     COMMON   BANK0   BANK1   BANK2   BANK3   BANK4   BANK5   BANK6   BANK7   BANK8   BANK9  BANK10  BANK1
      +1  BANK12
  6365 ;;      Params:         0       0       0       0       0       0       0       0       0       0       0       0       
      +0       0
  6366 ;;      Locals:         0       4       0       0       0       0       0       0       0       0       0       0       
      +0       0
  6367 ;;      Temps:          0       1       0       0       0       0       0       0       0       0       0       0       
      +0       0
  6368 ;;      Totals:         0       5       0       0       0       0       0       0       0       0       0       0       
      +0       0
  6369 ;;Total ram usage:        5 bytes
  6370 ;; Hardware stack levels used:    1
  6371 ;; Hardware stack levels required when called:    4
  6372 ;; This function calls:
  6373 ;;		_USER_USB_CALLBACK_EVENT_HANDLER
  6374 ;;		_memset
  6375 ;; This function is called by:
  6376 ;;		_USBCheckStdRequest
  6377 ;; This function uses a non-reentrant model
  6378 ;;
  6379                           
  6380                           
  6381                           ;psect for function _USBStdSetCfgHandler
  6382  0EE0                     _USBStdSetCfgHandler:	
  6383                           
  6384                           ;usb_device.c: 1970: uint8_t i;
  6385                           ;usb_device.c: 1973: inPipes[0].info.bits.busy = 1;
  6386                           
  6387                           ;incstack = 0
  6388                           ; Regs used in _USBStdSetCfgHandler: [wreg-fsr1h+status,2+status,0+pclath+cstack]
  6389  0EE0  0023               	movlb	3	; select bank3
  6390  0EE1  17B5               	bsf	(_inPipes^(0+384)+2),7	;volatile
  6391                           
  6392                           ;usb_device.c: 1976: { uint8_t i; uint8_t* p = (uint8_t*)&UEP1; for(i=0;i<2;i++) *p++ = 
      +                          0; };
  6393  0EE2  300E               	movlw	14
  6394  0EE3  0020               	movlb	0	; select bank0
  6395  0EE4  00E8               	movwf	USBStdSetCfgHandler@p+1
  6396  0EE5  3099               	movlw	153
  6397  0EE6  00E7               	movwf	USBStdSetCfgHandler@p
  6398  0EE7  01E9               	clrf	USBStdSetCfgHandler@i_1174
  6399  0EE8  3002               	movlw	2
  6400  0EE9  0269               	subwf	USBStdSetCfgHandler@i_1174,w
  6401  0EEA  1803               	btfsc	3,0
  6402  0EEB  2EFD               	goto	i1l2876
  6403  0EEC                     i1l2868:	
  6404  0EEC  0867               	movf	USBStdSetCfgHandler@p,w
  6405  0EED  0086               	movwf	6
  6406  0EEE  0868               	movf	USBStdSetCfgHandler@p+1,w
  6407  0EEF  0087               	movwf	7
  6408  0EF0  0181               	clrf	1
  6409  0EF1  3001               	movlw	1
  6410  0EF2  07E7               	addwf	USBStdSetCfgHandler@p,f
  6411  0EF3  3000               	movlw	0
  6412  0EF4  3DE8               	addwfc	USBStdSetCfgHandler@p+1,f
  6413  0EF5  3001               	movlw	1
  6414  0EF6  00E6               	movwf	??_USBStdSetCfgHandler
  6415  0EF7  0866               	movf	??_USBStdSetCfgHandler,w
  6416  0EF8  07E9               	addwf	USBStdSetCfgHandler@i_1174,f
  6417  0EF9  3002               	movlw	2
  6418  0EFA  0269               	subwf	USBStdSetCfgHandler@i_1174,w
  6419  0EFB  1C03               	skipc
  6420  0EFC  2EEC               	goto	i1l2868
  6421  0EFD                     i1l2876:	
  6422                           
  6423                           ;usb_device.c: 1979: memset((void*)&BDT[0], 0x00, sizeof(BDT));
  6424  0EFD  3020               	movlw	32
  6425  0EFE  00F0               	movwf	memset@p1
  6426  0EFF  3000               	movlw	0
  6427  0F00  00F1               	movwf	memset@p1+1
  6428  0F01  3000               	movlw	0
  6429  0F02  00F2               	movwf	memset@c
  6430  0F03  00F3               	movwf	memset@c+1
  6431  0F04  3030               	movlw	48
  6432  0F05  00F4               	movwf	memset@n
  6433  0F06  3000               	movlw	0
  6434  0F07  00F5               	movwf	memset@n+1
  6435  0F08  3197  2779  318E   	fcall	_memset
  6436                           
  6437                           ;usb_device.c: 1982: UCONbits.PPBRST = 1;
  6438  0F0B  003D               	movlb	29	; select bank29
  6439  0F0C  170E               	bsf	14,6	;volatile
  6440                           
  6441                           ;usb_device.c: 1987: for(i = 0; i < (uint8_t)(2+1u); i++)
  6442  0F0D  0020               	movlb	0	; select bank0
  6443  0F0E  01EA               	clrf	USBStdSetCfgHandler@i
  6444  0F0F  3003               	movlw	3
  6445  0F10  026A               	subwf	USBStdSetCfgHandler@i,w
  6446  0F11  1803               	btfsc	3,0
  6447  0F12  2F27               	goto	i1l2892
  6448  0F13                     i1l2886:	
  6449                           
  6450                           ;usb_device.c: 1988: {
  6451                           ;usb_device.c: 1989: ep_data_in[i].Val = 0u;
  6452  0F13  086A               	movf	USBStdSetCfgHandler@i,w
  6453  0F14  3EC0               	addlw	(low (_ep_data_in| (0+256)))& (0+255)
  6454  0F15  0086               	movwf	6
  6455  0F16  3001               	movlw	1	; select bank3/4
  6456  0F17  0087               	movwf	7
  6457  0F18  0181               	clrf	1
  6458                           
  6459                           ;usb_device.c: 1990: ep_data_out[i].Val = 0u;
  6460  0F19  086A               	movf	USBStdSetCfgHandler@i,w
  6461  0F1A  3EC3               	addlw	(low (_ep_data_out| (0+256)))& (0+255)
  6462  0F1B  0086               	movwf	6
  6463  0F1C  3001               	movlw	1	; select bank3/4
  6464  0F1D  0087               	movwf	7
  6465  0F1E  0181               	clrf	1
  6466  0F1F  3001               	movlw	1
  6467  0F20  00E6               	movwf	??_USBStdSetCfgHandler
  6468  0F21  0866               	movf	??_USBStdSetCfgHandler,w
  6469  0F22  07EA               	addwf	USBStdSetCfgHandler@i,f
  6470  0F23  3003               	movlw	3
  6471  0F24  026A               	subwf	USBStdSetCfgHandler@i,w
  6472  0F25  1C03               	skipc
  6473  0F26  2F13               	goto	i1l2886
  6474  0F27                     i1l2892:	
  6475                           
  6476                           ;usb_device.c: 1991: }
  6477                           ;usb_device.c: 1994: memset((void*)&USBAlternateInterface,0x00,2);
  6478  0F27  30E7               	movlw	low _USBAlternateInterface
  6479  0F28  00F0               	movwf	memset@p1
  6480  0F29  3001               	movlw	high _USBAlternateInterface
  6481  0F2A  00F1               	movwf	memset@p1+1
  6482  0F2B  3000               	movlw	0
  6483  0F2C  00F2               	movwf	memset@c
  6484  0F2D  00F3               	movwf	memset@c+1
  6485  0F2E  3002               	movlw	2
  6486  0F2F  00F4               	movwf	memset@n
  6487  0F30  3000               	movlw	0
  6488  0F31  00F5               	movwf	memset@n+1
  6489  0F32  3197  2779  318E   	fcall	_memset
  6490                           
  6491                           ;usb_device.c: 1997: UCONbits.PPBRST = 0;
  6492  0F35  003D               	movlb	29	; select bank29
  6493  0F36  130E               	bcf	14,6	;volatile
  6494                           
  6495                           ;usb_device.c: 1999: pBDTEntryIn[0] = (volatile BDT_ENTRY*)&BDT[2];
  6496  0F37  3028               	movlw	40
  6497  0F38  0023               	movlb	3	; select bank3
  6498  0F39  00A7               	movwf	_pBDTEntryIn^(0+384)
  6499  0F3A  3000               	movlw	0
  6500  0F3B  00A8               	movwf	(_pBDTEntryIn+1)^(0+384)
  6501                           
  6502                           ;usb_device.c: 2002: pBDTEntryEP0OutCurrent = (volatile BDT_ENTRY*)&BDT[0];
  6503  0F3C  3020               	movlw	32
  6504  0F3D  0020               	movlb	0	; select bank0
  6505  0F3E  00E6               	movwf	??_USBStdSetCfgHandler
  6506  0F3F  0866               	movf	??_USBStdSetCfgHandler,w
  6507  0F40  0021               	movlb	1	; select bank1
  6508  0F41  00E4               	movwf	_pBDTEntryEP0OutCurrent^(0+128)
  6509                           
  6510                           ;usb_device.c: 2003: pBDTEntryEP0OutNext = pBDTEntryEP0OutCurrent;
  6511  0F42  0864               	movf	_pBDTEntryEP0OutCurrent^(0+128),w
  6512  0F43  00E0               	movwf	_pBDTEntryEP0OutNext^(0+128)
  6513  0F44  39FF               	andlw	255
  6514  0F45  1D03               	skipz
  6515  0F46  3000               	movlw	0
  6516  0F47  00E1               	movwf	(_pBDTEntryEP0OutNext+1)^(0+128)
  6517                           
  6518                           ;usb_device.c: 2006: USBActiveConfiguration = SetupPkt.bConfigurationValue;
  6519  0F48  0020               	movlb	0	; select bank0
  6520  0F49  0852               	movf	82,w	;volatile
  6521  0F4A  00E6               	movwf	??_USBStdSetCfgHandler
  6522  0F4B  0866               	movf	??_USBStdSetCfgHandler,w
  6523  0F4C  0023               	movlb	3	; select bank3
  6524  0F4D  00E9               	movwf	_USBActiveConfiguration^(0+384)	;volatile
  6525                           
  6526                           ;usb_device.c: 2009: if(USBActiveConfiguration == 0)
  6527  0F4E  0869               	movf	_USBActiveConfiguration^(0+384),w	;volatile
  6528  0F4F  1D03               	btfss	3,2
  6529  0F50  2F58               	goto	i1l2908
  6530                           
  6531                           ;usb_device.c: 2010: {
  6532                           ;usb_device.c: 2012: USBDeviceState = ADDRESS_STATE;
  6533  0F51  3010               	movlw	16
  6534  0F52  0020               	movlb	0	; select bank0
  6535  0F53  00E6               	movwf	??_USBStdSetCfgHandler
  6536  0F54  0866               	movf	??_USBStdSetCfgHandler,w
  6537  0F55  0021               	movlb	1	; select bank1
  6538  0F56  00E2               	movwf	_USBDeviceState^(0+128)	;volatile
  6539                           
  6540                           ;usb_device.c: 2013: }
  6541  0F57  0008               	return
  6542  0F58                     i1l2908:	
  6543                           
  6544                           ;usb_device.c: 2014: else
  6545                           ;usb_device.c: 2015: {
  6546                           ;usb_device.c: 2017: USER_USB_CALLBACK_EVENT_HANDLER(EVENT_CONFIGURED,(void*)&USBActiveC
      +                          onfiguration,1);
  6547  0F58  3000               	movlw	0
  6548  0F59  0020               	movlb	0	; select bank0
  6549  0F5A  00E1               	movwf	USER_USB_CALLBACK_EVENT_HANDLER@event+1
  6550  0F5B  3001               	movlw	1
  6551  0F5C  00E0               	movwf	USER_USB_CALLBACK_EVENT_HANDLER@event
  6552  0F5D  30E9               	movlw	low _USBActiveConfiguration
  6553  0F5E  00E2               	movwf	USER_USB_CALLBACK_EVENT_HANDLER@pdata
  6554  0F5F  3001               	movlw	high _USBActiveConfiguration
  6555  0F60  00E3               	movwf	USER_USB_CALLBACK_EVENT_HANDLER@pdata+1
  6556  0F61  3001               	movlw	1
  6557  0F62  00E4               	movwf	USER_USB_CALLBACK_EVENT_HANDLER@size
  6558  0F63  3000               	movlw	0
  6559  0F64  00E5               	movwf	USER_USB_CALLBACK_EVENT_HANDLER@size+1
  6560  0F65  3189  2108         	fcall	_USER_USB_CALLBACK_EVENT_HANDLER
  6561                           
  6562                           ;usb_device.c: 2022: USBDeviceState = CONFIGURED_STATE;
  6563  0F67  3020               	movlw	32
  6564  0F68  0020               	movlb	0	; select bank0
  6565  0F69  00E6               	movwf	??_USBStdSetCfgHandler
  6566  0F6A  0866               	movf	??_USBStdSetCfgHandler,w
  6567  0F6B  0021               	movlb	1	; select bank1
  6568  0F6C  00E2               	movwf	_USBDeviceState^(0+128)	;volatile
  6569  0F6D  0008               	return
  6570  0F6E                     __end_of_USBStdSetCfgHandler:	
  6571                           
  6572                           	psect	text24
  6573  1779                     __ptext24:	
  6574 ;; *************** function _memset *****************
  6575 ;; Defined at:
  6576 ;;		line 8 in file "C:\Program Files (x86)\Microchip\xc8\v1.37\sources\common\memset.c"
  6577 ;; Parameters:    Size  Location     Type
  6578 ;;  p1              2    0[COMMON] PTR void 
  6579 ;;		 -> USBAlternateInterface(2), BDT(48), 
  6580 ;;  c               2    2[COMMON] int 
  6581 ;;  n               2    4[COMMON] unsigned int 
  6582 ;; Auto vars:     Size  Location     Type
  6583 ;;  p               2    6[COMMON] PTR unsigned char 
  6584 ;;		 -> USBAlternateInterface(2), BDT(48), 
  6585 ;; Return value:  Size  Location     Type
  6586 ;;                  2    0[COMMON] PTR void 
  6587 ;; Registers used:
  6588 ;;		wreg, fsr1l, fsr1h, status,2, status,0
  6589 ;; Tracked objects:
  6590 ;;		On entry : 0/0
  6591 ;;		On exit  : 0/0
  6592 ;;		Unchanged: 0/0
  6593 ;; Data sizes:     COMMON   BANK0   BANK1   BANK2   BANK3   BANK4   BANK5   BANK6   BANK7   BANK8   BANK9  BANK10  BANK1
      +1  BANK12
  6594 ;;      Params:         6       0       0       0       0       0       0       0       0       0       0       0       
      +0       0
  6595 ;;      Locals:         2       0       0       0       0       0       0       0       0       0       0       0       
      +0       0
  6596 ;;      Temps:          0       0       0       0       0       0       0       0       0       0       0       0       
      +0       0
  6597 ;;      Totals:         8       0       0       0       0       0       0       0       0       0       0       0       
      +0       0
  6598 ;;Total ram usage:        8 bytes
  6599 ;; Hardware stack levels used:    1
  6600 ;; This function calls:
  6601 ;;		Nothing
  6602 ;; This function is called by:
  6603 ;;		_USBStdSetCfgHandler
  6604 ;; This function uses a non-reentrant model
  6605 ;;
  6606                           
  6607                           
  6608                           ;psect for function _memset
  6609  1779                     _memset:	
  6610                           
  6611                           ;incstack = 0
  6612                           ; Regs used in _memset: [wreg+fsr1l+fsr1h+status,2+status,0]
  6613  1779  0871               	movf	memset@p1+1,w
  6614  177A  00F7               	movwf	memset@p+1
  6615  177B  0870               	movf	memset@p1,w
  6616  177C  00F6               	movwf	memset@p
  6617  177D                     i1l2798:	
  6618  177D  3001               	movlw	1
  6619  177E  02F4               	subwf	memset@n,f
  6620  177F  3000               	movlw	0
  6621  1780  3BF5               	subwfb	memset@n+1,f
  6622  1781  0A74               	incf	memset@n,w
  6623  1782  1903               	btfsc	3,2
  6624  1783  0A75               	incf	memset@n+1,w
  6625  1784  1903               	btfsc	3,2
  6626  1785  0008               	return
  6627  1786  0876               	movf	memset@p,w
  6628  1787  0086               	movwf	6
  6629  1788  0877               	movf	memset@p+1,w
  6630  1789  0087               	movwf	7
  6631  178A  0872               	movf	memset@c,w
  6632  178B  0081               	movwf	1
  6633  178C  3001               	movlw	1
  6634  178D  07F6               	addwf	memset@p,f
  6635  178E  3000               	movlw	0
  6636  178F  3DF7               	addwfc	memset@p+1,f
  6637  1790  2F7D               	goto	i1l2798
  6638  1791                     __end_of_memset:	
  6639                           ;	Return value of _memset is never used
  6640                           
  6641                           
  6642                           	psect	text25
  6643  0AA9                     __ptext25:	
  6644 ;; *************** function _USBStdGetStatusHandler *****************
  6645 ;; Defined at:
  6646 ;;		line 2129 in file "../lib/usb/src/usb_device.c"
  6647 ;; Parameters:    Size  Location     Type
  6648 ;;		None
  6649 ;; Auto vars:     Size  Location     Type
  6650 ;;  p               2    1[COMMON] PTR struct __BDT
  6651 ;;		 -> RAM(4096), NULL(0), BDT(48), 
  6652 ;; Return value:  Size  Location     Type
  6653 ;;                  1    wreg      void 
  6654 ;; Registers used:
  6655 ;;		wreg, fsr0l, fsr0h, fsr1l, fsr1h, status,2, status,0
  6656 ;; Tracked objects:
  6657 ;;		On entry : 0/0
  6658 ;;		On exit  : 0/0
  6659 ;;		Unchanged: 0/0
  6660 ;; Data sizes:     COMMON   BANK0   BANK1   BANK2   BANK3   BANK4   BANK5   BANK6   BANK7   BANK8   BANK9  BANK10  BANK1
      +1  BANK12
  6661 ;;      Params:         0       0       0       0       0       0       0       0       0       0       0       0       
      +0       0
  6662 ;;      Locals:         2       0       0       0       0       0       0       0       0       0       0       0       
      +0       0
  6663 ;;      Temps:          1       0       0       0       0       0       0       0       0       0       0       0       
      +0       0
  6664 ;;      Totals:         3       0       0       0       0       0       0       0       0       0       0       0       
      +0       0
  6665 ;;Total ram usage:        3 bytes
  6666 ;; Hardware stack levels used:    1
  6667 ;; This function calls:
  6668 ;;		Nothing
  6669 ;; This function is called by:
  6670 ;;		_USBCheckStdRequest
  6671 ;; This function uses a non-reentrant model
  6672 ;;
  6673                           
  6674                           
  6675                           ;psect for function _USBStdGetStatusHandler
  6676  0AA9                     _USBStdGetStatusHandler:	
  6677                           
  6678                           ;usb_device.c: 2131: CtrlTrfData[0] = 0;
  6679                           
  6680                           ;incstack = 0
  6681                           ; Regs used in _USBStdGetStatusHandler: [wreg-fsr1h+status,2+status,0]
  6682  0AA9  0020               	movlb	0	; select bank0
  6683  0AAA  01D8               	clrf	88	;volatile
  6684                           
  6685                           ;usb_device.c: 2132: CtrlTrfData[1] = 0;
  6686  0AAB  01D9               	clrf	89	;volatile
  6687                           
  6688                           ;usb_device.c: 2134: switch(SetupPkt.Recipient)
  6689  0AAC  2AE5               	goto	i1l2964
  6690  0AAD                     i1l323:	
  6691                           ;usb_device.c: 2135: {
  6692                           ;usb_device.c: 2136: case (0x00):
  6693                           
  6694                           
  6695                           ;usb_device.c: 2137: inPipes[0].info.bits.busy = 1;
  6696  0AAD  0023               	movlb	3	; select bank3
  6697  0AAE  17B5               	bsf	(_inPipes^(0+384)+2),7	;volatile
  6698                           
  6699                           ;usb_device.c: 2145: }
  6700                           ;usb_device.c: 2147: if(RemoteWakeup == 1)
  6701                           
  6702                           ;usb_device.c: 2143: {
  6703                           ;usb_device.c: 2144: CtrlTrfData[0]|=0x01;
  6704                           
  6705                           ;usb_device.c: 2142: if(0 == 1)
  6706  0AAF  0023               	movlb	3	; select bank3
  6707  0AB0  034F               	decf	_RemoteWakeup^(0+384),w	;volatile
  6708  0AB1  1D03               	btfss	3,2
  6709  0AB2  2AF1               	goto	i1l326
  6710                           
  6711                           ;usb_device.c: 2148: {
  6712                           ;usb_device.c: 2149: CtrlTrfData[0]|=0x02;
  6713  0AB3  0020               	movlb	0	; select bank0
  6714  0AB4  14D8               	bsf	88,1	;volatile
  6715                           
  6716                           ;usb_device.c: 2150: }
  6717                           ;usb_device.c: 2151: break;
  6718  0AB5  2AF1               	goto	i1l326
  6719  0AB6                     i1l327:	
  6720                           ;usb_device.c: 2152: case (0x01):
  6721                           
  6722                           
  6723                           ;usb_device.c: 2153: inPipes[0].info.bits.busy = 1;
  6724  0AB6  0023               	movlb	3	; select bank3
  6725  0AB7  17B5               	bsf	(_inPipes^(0+384)+2),7	;volatile
  6726                           
  6727                           ;usb_device.c: 2154: break;
  6728  0AB8  2AF1               	goto	i1l326
  6729  0AB9                     i1l328:	
  6730                           ;usb_device.c: 2155: case (0x02):
  6731                           
  6732                           
  6733                           ;usb_device.c: 2156: inPipes[0].info.bits.busy = 1;
  6734  0AB9  0023               	movlb	3	; select bank3
  6735  0ABA  17B5               	bsf	(_inPipes^(0+384)+2),7	;volatile
  6736                           
  6737                           ;usb_device.c: 2160: {
  6738                           ;usb_device.c: 2161: BDT_ENTRY *p;
  6739                           ;usb_device.c: 2163: if(SetupPkt.EPDir == 0)
  6740  0ABB  0020               	movlb	0	; select bank0
  6741  0ABC  1BD4               	btfsc	84,7	;volatile
  6742  0ABD  2AC9               	goto	i1l2954
  6743                           
  6744                           ;usb_device.c: 2164: {
  6745                           ;usb_device.c: 2165: p = (BDT_ENTRY*)pBDTEntryOut[SetupPkt.EPNum];
  6746  0ABE  0854               	movf	84,w	;volatile
  6747  0ABF  390F               	andlw	15
  6748  0AC0  0709               	addwf	9,w
  6749  0AC1  3EAD               	addlw	(low (_pBDTEntryOut| (0+256)))& (0+255)
  6750  0AC2  0086               	movwf	6
  6751  0AC3  3001               	movlw	1	; select bank3/4
  6752  0AC4  0087               	movwf	7
  6753  0AC5  3F40               	moviw [0]fsr1
  6754  0AC6  00F1               	movwf	USBStdGetStatusHandler@p
  6755  0AC7  3F41               	moviw [1]fsr1
  6756  0AC8  2AD3               	goto	L5
  6757  0AC9                     i1l2954:	
  6758                           ;usb_device.c: 2166: }
  6759                           
  6760                           
  6761                           ;usb_device.c: 2167: else
  6762                           ;usb_device.c: 2168: {
  6763                           ;usb_device.c: 2169: p = (BDT_ENTRY*)pBDTEntryIn[SetupPkt.EPNum];
  6764  0AC9  0854               	movf	84,w	;volatile
  6765  0ACA  390F               	andlw	15
  6766  0ACB  0709               	addwf	9,w
  6767  0ACC  3EA7               	addlw	(low (_pBDTEntryIn| (0+256)))& (0+255)
  6768  0ACD  0086               	movwf	6
  6769  0ACE  3001               	movlw	1	; select bank3/4
  6770  0ACF  0087               	movwf	7
  6771  0AD0  3F40               	moviw [0]fsr1
  6772  0AD1  00F1               	movwf	USBStdGetStatusHandler@p
  6773  0AD2  3F41               	moviw [1]fsr1
  6774  0AD3                     L5:	
  6775  0AD3  00F2               	movwf	USBStdGetStatusHandler@p+1
  6776                           
  6777                           ;usb_device.c: 2170: }
  6778                           ;usb_device.c: 2172: if((p->STAT.UOWN == 1) && (p->STAT.BSTALL == 1))
  6779  0AD4  0871               	movf	USBStdGetStatusHandler@p,w
  6780  0AD5  0086               	movwf	6
  6781  0AD6  0872               	movf	USBStdGetStatusHandler@p+1,w
  6782  0AD7  0087               	movwf	7
  6783  0AD8  1F81               	btfss	1,7
  6784  0AD9  2AF1               	goto	i1l326
  6785  0ADA  0871               	movf	USBStdGetStatusHandler@p,w
  6786  0ADB  0086               	movwf	6
  6787  0ADC  0872               	movf	USBStdGetStatusHandler@p+1,w
  6788  0ADD  0087               	movwf	7
  6789  0ADE  1D01               	btfss	1,2
  6790  0ADF  2AF1               	goto	i1l326
  6791                           
  6792                           ;usb_device.c: 2173: CtrlTrfData[0]=0x01;
  6793  0AE0  3001               	movlw	1
  6794  0AE1  00F0               	movwf	??_USBStdGetStatusHandler
  6795  0AE2  0870               	movf	??_USBStdGetStatusHandler,w
  6796  0AE3  00D8               	movwf	88	;volatile
  6797                           
  6798                           ;usb_device.c: 2175: }
  6799                           ;usb_device.c: 2176: }
  6800                           
  6801                           ;usb_device.c: 2174: break;
  6802  0AE4  2AF1               	goto	i1l326
  6803  0AE5                     i1l2964:	
  6804  0AE5  0850               	movf	80,w	;volatile
  6805  0AE6  391F               	andlw	31
  6806                           
  6807                           ; Switch size 1, requested type "space"
  6808                           ; Number of cases is 3, Range of values is 0 to 2
  6809                           ; switch strategies available:
  6810                           ; Name         Instructions Cycles
  6811                           ; simple_byte           10     6 (average)
  6812                           ; direct_byte           12     6 (fixed)
  6813                           ; jumptable            260     6 (fixed)
  6814                           ;	Chosen strategy is simple_byte
  6815  0AE7  3A00               	xorlw	0	; case 0
  6816  0AE8  1903               	skipnz
  6817  0AE9  2AAD               	goto	i1l323
  6818  0AEA  3A01               	xorlw	1	; case 1
  6819  0AEB  1903               	skipnz
  6820  0AEC  2AB6               	goto	i1l327
  6821  0AED  3A03               	xorlw	3	; case 2
  6822  0AEE  1903               	skipnz
  6823  0AEF  2AB9               	goto	i1l328
  6824  0AF0  2AF1               	goto	i1l326
  6825  0AF1                     i1l326:	
  6826                           
  6827                           ;usb_device.c: 2178: if(inPipes[0].info.bits.busy == 1)
  6828  0AF1  0023               	movlb	3	; select bank3
  6829  0AF2  1FB5               	btfss	(_inPipes^(0+384)+2),7	;volatile
  6830  0AF3  0008               	return
  6831                           
  6832                           ;usb_device.c: 2179: {
  6833                           ;usb_device.c: 2180: inPipes[0].pSrc.bRam = (uint8_t*)&CtrlTrfData;
  6834  0AF4  3058               	movlw	88
  6835  0AF5  00B3               	movwf	_inPipes^(0+384)	;volatile
  6836  0AF6  3000               	movlw	0
  6837  0AF7  00B4               	movwf	(_inPipes+1)^(0+384)	;volatile
  6838                           
  6839                           ;usb_device.c: 2181: inPipes[0].info.bits.ctrl_trf_mem = 0x01;
  6840  0AF8  1435               	bsf	(_inPipes^(0+384)+2),0	;volatile
  6841                           
  6842                           ;usb_device.c: 2182: inPipes[0].wCount.v[0] = 2;
  6843  0AF9  3002               	movlw	2
  6844  0AFA  00F0               	movwf	??_USBStdGetStatusHandler
  6845  0AFB  0870               	movf	??_USBStdGetStatusHandler,w
  6846  0AFC  00B6               	movwf	(_inPipes^(0+384)+3)	;volatile
  6847  0AFD  0008               	return
  6848  0AFE                     __end_of_USBStdGetStatusHandler:	
  6849                           
  6850                           	psect	text26
  6851  0D5A                     __ptext26:	
  6852 ;; *************** function _USBStdGetDscHandler *****************
  6853 ;; Defined at:
  6854 ;;		line 2043 in file "../lib/usb/src/usb_device.c"
  6855 ;; Parameters:    Size  Location     Type
  6856 ;;		None
  6857 ;; Auto vars:     Size  Location     Type
  6858 ;;		None
  6859 ;; Return value:  Size  Location     Type
  6860 ;;                  1    wreg      void 
  6861 ;; Registers used:
  6862 ;;		wreg, fsr0l, fsr0h, status,2, status,0, pclath
  6863 ;; Tracked objects:
  6864 ;;		On entry : 0/0
  6865 ;;		On exit  : 0/0
  6866 ;;		Unchanged: 0/0
  6867 ;; Data sizes:     COMMON   BANK0   BANK1   BANK2   BANK3   BANK4   BANK5   BANK6   BANK7   BANK8   BANK9  BANK10  BANK1
      +1  BANK12
  6868 ;;      Params:         0       0       0       0       0       0       0       0       0       0       0       0       
      +0       0
  6869 ;;      Locals:         0       0       0       0       0       0       0       0       0       0       0       0       
      +0       0
  6870 ;;      Temps:          3       0       0       0       0       0       0       0       0       0       0       0       
      +0       0
  6871 ;;      Totals:         3       0       0       0       0       0       0       0       0       0       0       0       
      +0       0
  6872 ;;Total ram usage:        3 bytes
  6873 ;; Hardware stack levels used:    1
  6874 ;; This function calls:
  6875 ;;		Nothing
  6876 ;; This function is called by:
  6877 ;;		_USBCheckStdRequest
  6878 ;; This function uses a non-reentrant model
  6879 ;;
  6880                           
  6881                           
  6882                           ;psect for function _USBStdGetDscHandler
  6883  0D5A                     _USBStdGetDscHandler:	
  6884                           
  6885                           ;usb_device.c: 2045: if(SetupPkt.bmRequestType == 0x80)
  6886                           
  6887                           ;incstack = 0
  6888                           ; Regs used in _USBStdGetDscHandler: [wreg-fsr0h+status,2+status,0+pclath]
  6889  0D5A  3080               	movlw	128
  6890  0D5B  0020               	movlb	0	; select bank0
  6891  0D5C  0650               	xorwf	80,w	;volatile
  6892  0D5D  1D03               	btfss	3,2
  6893  0D5E  0008               	return
  6894                           
  6895                           ;usb_device.c: 2046: {
  6896                           ;usb_device.c: 2047: inPipes[0].info.Val = 0x00 | 0x80 | 0x40;
  6897  0D5F  30C0               	movlw	192
  6898  0D60  00F0               	movwf	??_USBStdGetDscHandler
  6899  0D61  0870               	movf	??_USBStdGetDscHandler,w
  6900  0D62  0023               	movlb	3	; select bank3
  6901  0D63  00B5               	movwf	(_inPipes^(0+384)+2)	;volatile
  6902                           
  6903                           ;usb_device.c: 2049: switch(SetupPkt.bDescriptorType)
  6904  0D64  2DCC               	goto	i1l2942
  6905  0D65                     i1l2916:	
  6906                           ;usb_device.c: 2050: {
  6907                           ;usb_device.c: 2051: case 0x01:
  6908                           
  6909                           
  6910                           ;usb_device.c: 2055: inPipes[0].pSrc.bRom = (const uint8_t*)&device_dsc;
  6911  0D65  307F               	movlw	low (_device_dsc| (0+32768))
  6912  0D66  0023               	movlb	3	; select bank3
  6913  0D67  00B3               	movwf	_inPipes^(0+384)	;volatile
  6914  0D68  3085               	movlw	high (_device_dsc| (0+32768))
  6915  0D69  00B4               	movwf	(_inPipes^(0+384)+1)	;volatile
  6916                           
  6917                           ;usb_device.c: 2057: inPipes[0].wCount.Val = sizeof(device_dsc);
  6918  0D6A  3000               	movlw	0
  6919  0D6B  00B7               	movwf	((_inPipes+1)^(0+384)+3)	;volatile
  6920  0D6C  3012               	movlw	18
  6921  0D6D  00B6               	movwf	(_inPipes^(0+384)+3)	;volatile
  6922                           
  6923                           ;usb_device.c: 2058: break;
  6924  0D6E  0008               	return
  6925  0D6F                     i1l2920:	
  6926                           ;usb_device.c: 2059: case 0x02:
  6927                           
  6928                           
  6929                           ;usb_device.c: 2063: if(SetupPkt.bDscIndex < 1)
  6930  0D6F  0020               	movlb	0	; select bank0
  6931  0D70  0852               	movf	82,w	;volatile
  6932  0D71  1D03               	btfss	3,2
  6933  0D72  2DA2               	goto	i1l2928
  6934                           
  6935                           ;usb_device.c: 2064: {
  6936                           ;usb_device.c: 2068: inPipes[0].pSrc.bRom = *(USB_CD_Ptr+SetupPkt.bDscIndex);
  6937  0D73  0852               	movf	82,w	;volatile
  6938  0D74  00F0               	movwf	??_USBStdGetDscHandler
  6939  0D75  01F1               	clrf	??_USBStdGetDscHandler+1
  6940  0D76  35F0               	lslf	??_USBStdGetDscHandler,f
  6941  0D77  0DF1               	rlf	??_USBStdGetDscHandler+1,f
  6942  0D78  30D2               	movlw	low (_USB_CD_Ptr| (0+32768))
  6943  0D79  0770               	addwf	??_USBStdGetDscHandler,w
  6944  0D7A  0084               	movwf	4
  6945  0D7B  3084               	movlw	high (_USB_CD_Ptr| (0+32768))
  6946  0D7C  3D71               	addwfc	??_USBStdGetDscHandler+1,w
  6947  0D7D  0085               	movwf	5
  6948  0D7E  3F00               	moviw [0]fsr0
  6949  0D7F  0023               	movlb	3	; select bank3
  6950  0D80  00B3               	movwf	_inPipes^(0+384)	;volatile
  6951  0D81  3F01               	moviw [1]fsr0
  6952  0D82  00B4               	movwf	(_inPipes+1)^(0+384)	;volatile
  6953                           
  6954                           ;usb_device.c: 2074: inPipes[0].wCount.byte.LB = *(inPipes[0].pSrc.bRom+2);
  6955  0D83  0834               	movf	(_inPipes+1)^(0+384),w	;volatile
  6956  0D84  00F1               	movwf	??_USBStdGetDscHandler+1
  6957  0D85  0833               	movf	_inPipes^(0+384),w	;volatile
  6958  0D86  00F0               	movwf	??_USBStdGetDscHandler
  6959  0D87  3002               	movlw	2
  6960  0D88  0770               	addwf	??_USBStdGetDscHandler,w
  6961  0D89  0084               	movwf	4
  6962  0D8A  0871               	movf	??_USBStdGetDscHandler+1,w
  6963  0D8B  1803               	skipnc
  6964  0D8C  0A71               	incf	??_USBStdGetDscHandler+1,w
  6965  0D8D  0085               	movwf	5
  6966  0D8E  0800               	movf	0,w	;code access
  6967  0D8F  00F2               	movwf	??_USBStdGetDscHandler+2
  6968  0D90  0872               	movf	??_USBStdGetDscHandler+2,w
  6969  0D91  00B6               	movwf	(_inPipes^(0+384)+3)	;volatile
  6970                           
  6971                           ;usb_device.c: 2075: inPipes[0].wCount.byte.HB = *(inPipes[0].pSrc.bRom+3);
  6972  0D92  0834               	movf	(_inPipes+1)^(0+384),w	;volatile
  6973  0D93  00F1               	movwf	??_USBStdGetDscHandler+1
  6974  0D94  0833               	movf	_inPipes^(0+384),w	;volatile
  6975  0D95  00F0               	movwf	??_USBStdGetDscHandler
  6976  0D96  3003               	movlw	3
  6977  0D97  0770               	addwf	??_USBStdGetDscHandler,w
  6978  0D98  0084               	movwf	4
  6979  0D99  0871               	movf	??_USBStdGetDscHandler+1,w
  6980  0D9A  1803               	skipnc
  6981  0D9B  0A71               	incf	??_USBStdGetDscHandler+1,w
  6982  0D9C  0085               	movwf	5
  6983  0D9D  0800               	movf	0,w	;code access
  6984  0D9E  00F2               	movwf	??_USBStdGetDscHandler+2
  6985  0D9F  0872               	movf	??_USBStdGetDscHandler+2,w
  6986  0DA0  00B7               	movwf	(_inPipes^(0+384)+4)	;volatile
  6987                           
  6988                           ;usb_device.c: 2076: }
  6989  0DA1  0008               	return
  6990  0DA2                     i1l2928:	
  6991                           
  6992                           ;usb_device.c: 2077: else
  6993                           ;usb_device.c: 2078: {
  6994                           ;usb_device.c: 2079: inPipes[0].info.Val = 0;
  6995  0DA2  0023               	movlb	3	; select bank3
  6996  0DA3  01B5               	clrf	(_inPipes^(0+384)+2)	;volatile
  6997                           
  6998                           ;usb_device.c: 2080: }
  6999                           ;usb_device.c: 2081: break;
  7000  0DA4  0008               	return
  7001  0DA5                     i1l2930:	
  7002                           ;usb_device.c: 2082: case 0x03:
  7003                           
  7004                           
  7005                           ;usb_device.c: 2086: if(SetupPkt.bDscIndex<3)
  7006  0DA5  3003               	movlw	3
  7007  0DA6  0020               	movlb	0	; select bank0
  7008  0DA7  0252               	subwf	82,w	;volatile
  7009  0DA8  1803               	skipnc
  7010  0DA9  2DC6               	goto	i1l2936
  7011                           
  7012                           ;usb_device.c: 2087: {
  7013                           ;usb_device.c: 2089: inPipes[0].pSrc.bRom = *(USB_SD_Ptr+SetupPkt.bDscIndex);
  7014  0DAA  0852               	movf	82,w	;volatile
  7015  0DAB  00F0               	movwf	??_USBStdGetDscHandler
  7016  0DAC  01F1               	clrf	??_USBStdGetDscHandler+1
  7017  0DAD  35F0               	lslf	??_USBStdGetDscHandler,f
  7018  0DAE  0DF1               	rlf	??_USBStdGetDscHandler+1,f
  7019  0DAF  30CC               	movlw	low (_USB_SD_Ptr| (0+32768))
  7020  0DB0  0770               	addwf	??_USBStdGetDscHandler,w
  7021  0DB1  0084               	movwf	4
  7022  0DB2  3084               	movlw	high (_USB_SD_Ptr| (0+32768))
  7023  0DB3  3D71               	addwfc	??_USBStdGetDscHandler+1,w
  7024  0DB4  0085               	movwf	5
  7025  0DB5  3F00               	moviw [0]fsr0
  7026  0DB6  0023               	movlb	3	; select bank3
  7027  0DB7  00B3               	movwf	_inPipes^(0+384)	;volatile
  7028  0DB8  3F01               	moviw [1]fsr0
  7029  0DB9  00B4               	movwf	(_inPipes+1)^(0+384)	;volatile
  7030                           
  7031                           ;usb_device.c: 2091: inPipes[0].wCount.Val = *inPipes[0].pSrc.bRom;
  7032  0DBA  0833               	movf	_inPipes^(0+384),w	;volatile
  7033  0DBB  0084               	movwf	4
  7034  0DBC  0834               	movf	(_inPipes+1)^(0+384),w	;volatile
  7035  0DBD  0085               	movwf	5
  7036  0DBE  0800               	movf	0,w	;code access
  7037  0DBF  00F0               	movwf	??_USBStdGetDscHandler
  7038  0DC0  01F1               	clrf	??_USBStdGetDscHandler+1
  7039  0DC1  0870               	movf	??_USBStdGetDscHandler,w
  7040  0DC2  00B6               	movwf	(_inPipes^(0+384)+3)	;volatile
  7041  0DC3  0871               	movf	??_USBStdGetDscHandler+1,w
  7042  0DC4  00B7               	movwf	((_inPipes+1)^(0+384)+3)	;volatile
  7043                           
  7044                           ;usb_device.c: 2092: }
  7045  0DC5  0008               	return
  7046  0DC6                     i1l2936:	
  7047                           
  7048                           ;usb_device.c: 2102: else
  7049                           ;usb_device.c: 2103: {
  7050                           ;usb_device.c: 2104: inPipes[0].info.Val = 0;
  7051  0DC6  0023               	movlb	3	; select bank3
  7052  0DC7  01B5               	clrf	(_inPipes^(0+384)+2)	;volatile
  7053                           
  7054                           ;usb_device.c: 2105: }
  7055                           ;usb_device.c: 2106: break;
  7056  0DC8  0008               	return
  7057  0DC9                     i1l2938:	
  7058                           ;usb_device.c: 2107: default:
  7059                           
  7060                           
  7061                           ;usb_device.c: 2108: inPipes[0].info.Val = 0;
  7062  0DC9  0023               	movlb	3	; select bank3
  7063  0DCA  01B5               	clrf	(_inPipes^(0+384)+2)	;volatile
  7064                           
  7065                           ;usb_device.c: 2110: }
  7066                           
  7067                           ;usb_device.c: 2109: break;
  7068  0DCB  0008               	return
  7069  0DCC                     i1l2942:	
  7070  0DCC  0020               	movlb	0	; select bank0
  7071  0DCD  0853               	movf	83,w	;volatile
  7072                           
  7073                           ; Switch size 1, requested type "space"
  7074                           ; Number of cases is 3, Range of values is 1 to 3
  7075                           ; switch strategies available:
  7076                           ; Name         Instructions Cycles
  7077                           ; simple_byte           10     6 (average)
  7078                           ; direct_byte           15     9 (fixed)
  7079                           ; jumptable            263     9 (fixed)
  7080                           ;	Chosen strategy is simple_byte
  7081  0DCE  3A01               	xorlw	1	; case 1
  7082  0DCF  1903               	skipnz
  7083  0DD0  2D65               	goto	i1l2916
  7084  0DD1  3A03               	xorlw	3	; case 2
  7085  0DD2  1903               	skipnz
  7086  0DD3  2D6F               	goto	i1l2920
  7087  0DD4  3A01               	xorlw	1	; case 3
  7088  0DD5  1903               	skipnz
  7089  0DD6  2DA5               	goto	i1l2930
  7090  0DD7  2DC9               	goto	i1l2938
  7091  0DD8  0008               	return
  7092  0DD9                     __end_of_USBStdGetDscHandler:	
  7093                           
  7094                           	psect	text27
  7095  01EF                     __ptext27:	
  7096 ;; *************** function _USBStdFeatureReqHandler *****************
  7097 ;; Defined at:
  7098 ;;		line 2754 in file "../lib/usb/src/usb_device.c"
  7099 ;; Parameters:    Size  Location     Type
  7100 ;;		None
  7101 ;; Auto vars:     Size  Location     Type
  7102 ;;  p               2   11[BANK0 ] PTR struct __BDT
  7103 ;;		 -> RAM(4096), NULL(0), BDT(48), 
  7104 ;;  pUEP            2    8[BANK0 ] PTR unsigned char 
  7105 ;;		 -> UEP0(1), 
  7106 ;;  current_ep_d    1   10[BANK0 ] struct .
  7107 ;; Return value:  Size  Location     Type
  7108 ;;                  1    wreg      void 
  7109 ;; Registers used:
  7110 ;;		wreg, fsr0l, fsr0h, fsr1l, fsr1h, status,2, status,0, pclath, cstack
  7111 ;; Tracked objects:
  7112 ;;		On entry : 0/0
  7113 ;;		On exit  : 0/0
  7114 ;;		Unchanged: 0/0
  7115 ;; Data sizes:     COMMON   BANK0   BANK1   BANK2   BANK3   BANK4   BANK5   BANK6   BANK7   BANK8   BANK9  BANK10  BANK1
      +1  BANK12
  7116 ;;      Params:         0       0       0       0       0       0       0       0       0       0       0       0       
      +0       0
  7117 ;;      Locals:         0       5       0       0       0       0       0       0       0       0       0       0       
      +0       0
  7118 ;;      Temps:          0       2       0       0       0       0       0       0       0       0       0       0       
      +0       0
  7119 ;;      Totals:         0       7       0       0       0       0       0       0       0       0       0       0       
      +0       0
  7120 ;;Total ram usage:        7 bytes
  7121 ;; Hardware stack levels used:    1
  7122 ;; Hardware stack levels required when called:    4
  7123 ;; This function calls:
  7124 ;;		_USER_USB_CALLBACK_EVENT_HANDLER
  7125 ;; This function is called by:
  7126 ;;		_USBCheckStdRequest
  7127 ;; This function uses a non-reentrant model
  7128 ;;
  7129                           
  7130                           
  7131                           ;psect for function _USBStdFeatureReqHandler
  7132  01EF                     _USBStdFeatureReqHandler:	
  7133                           
  7134                           ;usb_device.c: 2756: BDT_ENTRY *p;
  7135                           ;usb_device.c: 2757: EP_STATUS current_ep_data;
  7136                           ;usb_device.c: 2761: unsigned char* pUEP;
  7137                           ;usb_device.c: 2799: if((SetupPkt.bFeature == 1)&&
  7138                           ;usb_device.c: 2800: (SetupPkt.Recipient == (0x00)))
  7139                           
  7140                           ;incstack = 0
  7141                           ; Regs used in _USBStdFeatureReqHandler: [wreg-fsr1h+status,2+status,0+pclath+cstack]
  7142  01EF  0020               	movlb	0	; select bank0
  7143  01F0  0352               	decf	82,w	;volatile
  7144  01F1  1D03               	btfss	3,2
  7145  01F2  2A07               	goto	i1l2984
  7146  01F3  0850               	movf	80,w	;volatile
  7147  01F4  391F               	andlw	31
  7148  01F5  3A00               	xorlw	0
  7149  01F6  1D03               	skipz
  7150  01F7  2A07               	goto	i1l2984
  7151                           
  7152                           ;usb_device.c: 2801: {
  7153                           ;usb_device.c: 2802: inPipes[0].info.bits.busy = 1;
  7154  01F8  0023               	movlb	3	; select bank3
  7155  01F9  17B5               	bsf	(_inPipes^(0+384)+2),7	;volatile
  7156                           
  7157                           ;usb_device.c: 2803: if(SetupPkt.bRequest == 3)
  7158  01FA  3003               	movlw	3
  7159  01FB  0020               	movlb	0	; select bank0
  7160  01FC  0651               	xorwf	81,w	;volatile
  7161  01FD  1D03               	btfss	3,2
  7162  01FE  2A05               	goto	i1l2982
  7163                           
  7164                           ;usb_device.c: 2804: RemoteWakeup = 1;
  7165  01FF  3001               	movlw	1
  7166  0200  00E6               	movwf	??_USBStdFeatureReqHandler
  7167  0201  0866               	movf	??_USBStdFeatureReqHandler,w
  7168  0202  0023               	movlb	3	; select bank3
  7169  0203  00CF               	movwf	_RemoteWakeup^(0+384)	;volatile
  7170  0204  2A07               	goto	i1l2984
  7171  0205                     i1l2982:	
  7172                           
  7173                           ;usb_device.c: 2805: else
  7174                           ;usb_device.c: 2806: RemoteWakeup = 0;
  7175  0205  0023               	movlb	3	; select bank3
  7176  0206  01CF               	clrf	_RemoteWakeup^(0+384)	;volatile
  7177  0207                     i1l2984:	
  7178                           
  7179                           ;usb_device.c: 2807: }
  7180                           ;usb_device.c: 2810: if((SetupPkt.bFeature == 0)&&
  7181                           ;usb_device.c: 2811: (SetupPkt.Recipient == (0x02))&&
  7182                           ;usb_device.c: 2812: (SetupPkt.EPNum != 0) && (SetupPkt.EPNum <= 2)&&
  7183                           ;usb_device.c: 2813: (USBDeviceState == CONFIGURED_STATE))
  7184  0207  0020               	movlb	0	; select bank0
  7185  0208  0852               	movf	82,w	;volatile
  7186  0209  1D03               	btfss	3,2
  7187  020A  0008               	return
  7188  020B  0850               	movf	80,w	;volatile
  7189  020C  391F               	andlw	31
  7190  020D  3A02               	xorlw	2
  7191  020E  1D03               	skipz
  7192  020F  0008               	return
  7193  0210  0854               	movf	84,w	;volatile
  7194  0211  390F               	andlw	15
  7195  0212  3A00               	xorlw	0
  7196  0213  1903               	skipnz
  7197  0214  0008               	return
  7198  0215  0854               	movf	84,w	;volatile
  7199  0216  390F               	andlw	15
  7200  0217  00E6               	movwf	??_USBStdFeatureReqHandler
  7201  0218  3003               	movlw	3
  7202  0219  0266               	subwf	??_USBStdFeatureReqHandler,w
  7203  021A  1803               	skipnc
  7204  021B  0008               	return
  7205  021C  3020               	movlw	32
  7206  021D  0021               	movlb	1	; select bank1
  7207  021E  0662               	xorwf	_USBDeviceState^(0+128),w	;volatile
  7208  021F  1D03               	btfss	3,2
  7209  0220  0008               	return
  7210                           
  7211                           ;usb_device.c: 2814: {
  7212                           ;usb_device.c: 2817: inPipes[0].info.bits.busy = 1;
  7213  0221  0023               	movlb	3	; select bank3
  7214  0222  17B5               	bsf	(_inPipes^(0+384)+2),7	;volatile
  7215                           
  7216                           ;usb_device.c: 2820: if(SetupPkt.EPDir == 0)
  7217  0223  0020               	movlb	0	; select bank0
  7218  0224  1BD4               	btfsc	84,7	;volatile
  7219  0225  2A35               	goto	i1l2998
  7220                           
  7221                           ;usb_device.c: 2821: {
  7222                           ;usb_device.c: 2822: p = (BDT_ENTRY*)pBDTEntryOut[SetupPkt.EPNum];
  7223  0226  0854               	movf	84,w	;volatile
  7224  0227  390F               	andlw	15
  7225  0228  0709               	addwf	9,w
  7226  0229  3EAD               	addlw	(low (_pBDTEntryOut| (0+256)))& (0+255)
  7227  022A  0086               	movwf	6
  7228  022B  3001               	movlw	1	; select bank3/4
  7229  022C  0087               	movwf	7
  7230  022D  3F40               	moviw [0]fsr1
  7231  022E  00EB               	movwf	USBStdFeatureReqHandler@p
  7232  022F  3F41               	moviw [1]fsr1
  7233  0230  00EC               	movwf	USBStdFeatureReqHandler@p+1
  7234                           
  7235                           ;usb_device.c: 2823: current_ep_data.Val = ep_data_out[SetupPkt.EPNum].Val;
  7236  0231  0854               	movf	84,w	;volatile
  7237  0232  390F               	andlw	15
  7238  0233  3EC3               	addlw	(low (_ep_data_out| (0+256)))& (0+255)
  7239  0234  2A43               	goto	L6
  7240  0235                     i1l2998:	
  7241                           ;usb_device.c: 2824: }
  7242                           
  7243                           
  7244                           ;usb_device.c: 2825: else
  7245                           ;usb_device.c: 2826: {
  7246                           ;usb_device.c: 2827: p = (BDT_ENTRY*)pBDTEntryIn[SetupPkt.EPNum];
  7247  0235  0854               	movf	84,w	;volatile
  7248  0236  390F               	andlw	15
  7249  0237  0709               	addwf	9,w
  7250  0238  3EA7               	addlw	(low (_pBDTEntryIn| (0+256)))& (0+255)
  7251  0239  0086               	movwf	6
  7252  023A  3001               	movlw	1	; select bank3/4
  7253  023B  0087               	movwf	7
  7254  023C  3F40               	moviw [0]fsr1
  7255  023D  00EB               	movwf	USBStdFeatureReqHandler@p
  7256  023E  3F41               	moviw [1]fsr1
  7257  023F  00EC               	movwf	USBStdFeatureReqHandler@p+1
  7258                           
  7259                           ;usb_device.c: 2828: current_ep_data.Val = ep_data_in[SetupPkt.EPNum].Val;
  7260  0240  0854               	movf	84,w	;volatile
  7261  0241  390F               	andlw	15
  7262  0242  3EC0               	addlw	(low (_ep_data_in| (0+256)))& (0+255)
  7263  0243                     L6:	
  7264  0243  0086               	movwf	6
  7265  0244  3001               	movlw	1	; select bank3/4
  7266  0245  0087               	movwf	7
  7267  0246  0801               	movf	1,w
  7268  0247  00E6               	movwf	??_USBStdFeatureReqHandler
  7269  0248  0866               	movf	??_USBStdFeatureReqHandler,w
  7270  0249  00EA               	movwf	USBStdFeatureReqHandler@current_ep_data
  7271                           
  7272                           ;usb_device.c: 2829: }
  7273                           ;usb_device.c: 2835: if(current_ep_data.bits.ping_pong_state == 0)
  7274  024A  186A               	btfsc	USBStdFeatureReqHandler@current_ep_data,0
  7275  024B  2A56               	goto	i1l3004
  7276                           
  7277                           ;usb_device.c: 2836: {
  7278                           ;usb_device.c: 2837: p = (BDT_ENTRY*)(((uintptr_t)p) & (~0x0004));
  7279  024C  30FB               	movlw	251
  7280  024D  00E6               	movwf	??_USBStdFeatureReqHandler
  7281  024E  30FF               	movlw	255
  7282  024F  00E7               	movwf	??_USBStdFeatureReqHandler+1
  7283  0250  086B               	movf	USBStdFeatureReqHandler@p,w
  7284  0251  0566               	andwf	??_USBStdFeatureReqHandler,w
  7285  0252  00EB               	movwf	USBStdFeatureReqHandler@p
  7286  0253  086C               	movf	USBStdFeatureReqHandler@p+1,w
  7287  0254  0567               	andwf	??_USBStdFeatureReqHandler+1,w
  7288  0255  2A5B               	goto	L7
  7289  0256                     i1l3004:	
  7290                           ;usb_device.c: 2838: }
  7291                           
  7292                           
  7293                           ;usb_device.c: 2839: else
  7294                           ;usb_device.c: 2840: {
  7295                           ;usb_device.c: 2841: p = (BDT_ENTRY*)(((uintptr_t)p) | 0x0004);
  7296  0256  3004               	movlw	4
  7297  0257  046B               	iorwf	USBStdFeatureReqHandler@p,w
  7298  0258  00EB               	movwf	USBStdFeatureReqHandler@p
  7299  0259  3000               	movlw	0
  7300  025A  046C               	iorwf	USBStdFeatureReqHandler@p+1,w
  7301  025B                     L7:	
  7302  025B  00EC               	movwf	USBStdFeatureReqHandler@p+1
  7303                           
  7304                           ;usb_device.c: 2842: }
  7305                           ;usb_device.c: 2847: if(SetupPkt.EPDir == 0)
  7306  025C  1BD4               	btfsc	84,7	;volatile
  7307  025D  2A6A               	goto	i1l3010
  7308                           
  7309                           ;usb_device.c: 2848: {
  7310                           ;usb_device.c: 2849: pBDTEntryOut[SetupPkt.EPNum] = (volatile BDT_ENTRY *)p;
  7311  025E  0854               	movf	84,w	;volatile
  7312  025F  390F               	andlw	15
  7313  0260  0709               	addwf	9,w
  7314  0261  3EAD               	addlw	(low (_pBDTEntryOut| (0+256)))& (0+255)
  7315  0262  0086               	movwf	6
  7316  0263  3001               	movlw	1	; select bank3/4
  7317  0264  0087               	movwf	7
  7318  0265  086B               	movf	USBStdFeatureReqHandler@p,w
  7319  0266  3FC0               	movwi [0]fsr1
  7320  0267  086C               	movf	USBStdFeatureReqHandler@p+1,w
  7321  0268  3FC1               	movwi [1]fsr1
  7322                           
  7323                           ;usb_device.c: 2850: }
  7324  0269  2A75               	goto	i1l3012
  7325  026A                     i1l3010:	
  7326                           
  7327                           ;usb_device.c: 2851: else
  7328                           ;usb_device.c: 2852: {
  7329                           ;usb_device.c: 2853: pBDTEntryIn[SetupPkt.EPNum] = (volatile BDT_ENTRY *)p;
  7330  026A  0854               	movf	84,w	;volatile
  7331  026B  390F               	andlw	15
  7332  026C  0709               	addwf	9,w
  7333  026D  3EA7               	addlw	(low (_pBDTEntryIn| (0+256)))& (0+255)
  7334  026E  0086               	movwf	6
  7335  026F  3001               	movlw	1	; select bank3/4
  7336  0270  0087               	movwf	7
  7337  0271  086B               	movf	USBStdFeatureReqHandler@p,w
  7338  0272  3FC0               	movwi [0]fsr1
  7339  0273  086C               	movf	USBStdFeatureReqHandler@p+1,w
  7340  0274  3FC1               	movwi [1]fsr1
  7341  0275                     i1l3012:	
  7342                           
  7343                           ;usb_device.c: 2854: }
  7344                           ;usb_device.c: 2857: if(SetupPkt.bRequest == 3)
  7345  0275  3003               	movlw	3
  7346  0276  0651               	xorwf	81,w	;volatile
  7347  0277  1D03               	btfss	3,2
  7348  0278  2A97               	goto	i1l3026
  7349                           
  7350                           ;usb_device.c: 2858: {
  7351                           ;usb_device.c: 2859: if(p->STAT.UOWN == 1)
  7352  0279  086B               	movf	USBStdFeatureReqHandler@p,w
  7353  027A  0086               	movwf	6
  7354  027B  086C               	movf	USBStdFeatureReqHandler@p+1,w
  7355  027C  0087               	movwf	7
  7356  027D  1F81               	btfss	1,7
  7357  027E  2A8C               	goto	i1l3022
  7358                           
  7359                           ;usb_device.c: 2860: {
  7360                           ;usb_device.c: 2863: if(SetupPkt.EPDir == 0)
  7361  027F  1BD4               	btfsc	84,7	;volatile
  7362  0280  2A85               	goto	i1l3020
  7363                           
  7364                           ;usb_device.c: 2864: {
  7365                           ;usb_device.c: 2865: ep_data_out[SetupPkt.EPNum].bits.transfer_terminated = 1;
  7366  0281  0854               	movf	84,w	;volatile
  7367  0282  390F               	andlw	15
  7368  0283  3EC3               	addlw	(low (_ep_data_out| (0+256)))& (0+255)
  7369  0284  2A88               	goto	L8
  7370  0285                     i1l3020:	
  7371                           ;usb_device.c: 2866: }
  7372                           
  7373                           
  7374                           ;usb_device.c: 2867: else
  7375                           ;usb_device.c: 2868: {
  7376                           ;usb_device.c: 2869: ep_data_in[SetupPkt.EPNum].bits.transfer_terminated = 1;
  7377  0285  0854               	movf	84,w	;volatile
  7378  0286  390F               	andlw	15
  7379  0287  3EC0               	addlw	(low (_ep_data_in| (0+256)))& (0+255)
  7380  0288                     L8:	
  7381  0288  0086               	movwf	6
  7382  0289  3001               	movlw	1	; select bank3/4
  7383  028A  0087               	movwf	7
  7384  028B  1481               	bsf	1,1
  7385  028C                     i1l3022:	
  7386                           
  7387                           ;usb_device.c: 2870: }
  7388                           ;usb_device.c: 2871: }
  7389                           ;usb_device.c: 2874: p->STAT.Val |= 0x04;
  7390  028C  086B               	movf	USBStdFeatureReqHandler@p,w
  7391  028D  0086               	movwf	6
  7392  028E  086C               	movf	USBStdFeatureReqHandler@p+1,w
  7393  028F  0087               	movwf	7
  7394  0290  1501               	bsf	1,2
  7395                           
  7396                           ;usb_device.c: 2875: p->STAT.Val |= 0x80;
  7397  0291  086B               	movf	USBStdFeatureReqHandler@p,w
  7398  0292  0086               	movwf	6
  7399  0293  086C               	movf	USBStdFeatureReqHandler@p+1,w
  7400  0294  0087               	movwf	7
  7401  0295  1781               	bsf	1,7
  7402                           
  7403                           ;usb_device.c: 2876: }
  7404  0296  0008               	return
  7405  0297                     i1l3026:	
  7406                           
  7407                           ;usb_device.c: 2877: else
  7408                           ;usb_device.c: 2878: {
  7409                           ;usb_device.c: 2882: p = (BDT_ENTRY*)(((uintptr_t)p) ^ 0x0004);
  7410  0297  3004               	movlw	4
  7411  0298  066B               	xorwf	USBStdFeatureReqHandler@p,w
  7412  0299  00EB               	movwf	USBStdFeatureReqHandler@p
  7413  029A  3000               	movlw	0
  7414  029B  066C               	xorwf	USBStdFeatureReqHandler@p+1,w
  7415  029C  00EC               	movwf	USBStdFeatureReqHandler@p+1
  7416                           
  7417                           ;usb_device.c: 2884: if(p->STAT.UOWN == 1)
  7418  029D  086B               	movf	USBStdFeatureReqHandler@p,w
  7419  029E  0086               	movwf	6
  7420  029F  086C               	movf	USBStdFeatureReqHandler@p+1,w
  7421  02A0  0087               	movwf	7
  7422  02A1  1F81               	btfss	1,7
  7423  02A2  2AC0               	goto	i1l3036
  7424                           
  7425                           ;usb_device.c: 2885: {
  7426                           ;usb_device.c: 2888: p->STAT.Val &= (~0x80);
  7427  02A3  307F               	movlw	127
  7428  02A4  00E6               	movwf	??_USBStdFeatureReqHandler
  7429  02A5  086B               	movf	USBStdFeatureReqHandler@p,w
  7430  02A6  0086               	movwf	6
  7431  02A7  086C               	movf	USBStdFeatureReqHandler@p+1,w
  7432  02A8  0087               	movwf	7
  7433  02A9  0866               	movf	??_USBStdFeatureReqHandler,w
  7434  02AA  0581               	andwf	1,f
  7435                           
  7436                           ;usb_device.c: 2889: p->STAT.Val |= 0x40;
  7437  02AB  086B               	movf	USBStdFeatureReqHandler@p,w
  7438  02AC  0086               	movwf	6
  7439  02AD  086C               	movf	USBStdFeatureReqHandler@p+1,w
  7440  02AE  0087               	movwf	7
  7441  02AF  1701               	bsf	1,6
  7442                           
  7443                           ;usb_device.c: 2890: USER_USB_CALLBACK_EVENT_HANDLER(EVENT_TRANSFER_TERMINATED,p,sizeof(
      +                          p));
  7444  02B0  3000               	movlw	0
  7445  02B1  00E1               	movwf	USER_USB_CALLBACK_EVENT_HANDLER@event+1
  7446  02B2  3005               	movlw	5
  7447  02B3  00E0               	movwf	USER_USB_CALLBACK_EVENT_HANDLER@event
  7448  02B4  086C               	movf	USBStdFeatureReqHandler@p+1,w
  7449  02B5  00E3               	movwf	USER_USB_CALLBACK_EVENT_HANDLER@pdata+1
  7450  02B6  086B               	movf	USBStdFeatureReqHandler@p,w
  7451  02B7  00E2               	movwf	USER_USB_CALLBACK_EVENT_HANDLER@pdata
  7452  02B8  3002               	movlw	2
  7453  02B9  00E4               	movwf	USER_USB_CALLBACK_EVENT_HANDLER@size
  7454  02BA  3000               	movlw	0
  7455  02BB  00E5               	movwf	USER_USB_CALLBACK_EVENT_HANDLER@size+1
  7456  02BC  3189  2108  3181   	fcall	_USER_USB_CALLBACK_EVENT_HANDLER
  7457                           
  7458                           ;usb_device.c: 2891: }
  7459  02BF  2AC6               	goto	i1l3038
  7460  02C0                     i1l3036:	
  7461                           
  7462                           ;usb_device.c: 2892: else
  7463                           ;usb_device.c: 2893: {
  7464                           ;usb_device.c: 2895: p->STAT.Val |= 0x40;
  7465  02C0  0020               	movlb	0	; select bank0
  7466  02C1  086B               	movf	USBStdFeatureReqHandler@p,w
  7467  02C2  0086               	movwf	6
  7468  02C3  086C               	movf	USBStdFeatureReqHandler@p+1,w
  7469  02C4  0087               	movwf	7
  7470  02C5  1701               	bsf	1,6
  7471  02C6                     i1l3038:	
  7472                           
  7473                           ;usb_device.c: 2896: }
  7474                           ;usb_device.c: 2900: p = (BDT_ENTRY*)(((uintptr_t)p) ^ 0x0004);
  7475  02C6  3004               	movlw	4
  7476  02C7  0020               	movlb	0	; select bank0
  7477  02C8  066B               	xorwf	USBStdFeatureReqHandler@p,w
  7478  02C9  00EB               	movwf	USBStdFeatureReqHandler@p
  7479  02CA  3000               	movlw	0
  7480  02CB  066C               	xorwf	USBStdFeatureReqHandler@p+1,w
  7481  02CC  00EC               	movwf	USBStdFeatureReqHandler@p+1
  7482                           
  7483                           ;usb_device.c: 2906: if((current_ep_data.bits.transfer_terminated != 0) || (p->STAT.UOWN
      +                           == 1))
  7484  02CD  18EA               	btfsc	USBStdFeatureReqHandler@current_ep_data,1
  7485  02CE  2AD5               	goto	i1l419
  7486  02CF  086B               	movf	USBStdFeatureReqHandler@p,w
  7487  02D0  0086               	movwf	6
  7488  02D1  086C               	movf	USBStdFeatureReqHandler@p+1,w
  7489  02D2  0087               	movwf	7
  7490  02D3  1F81               	btfss	1,7
  7491  02D4  2AFA               	goto	i1l3050
  7492  02D5                     i1l419:	
  7493                           
  7494                           ;usb_device.c: 2907: {
  7495                           ;usb_device.c: 2908: if(SetupPkt.EPDir == 0)
  7496  02D5  1BD4               	btfsc	84,7	;volatile
  7497  02D6  2ADB               	goto	i1l3046
  7498                           
  7499                           ;usb_device.c: 2909: {
  7500                           ;usb_device.c: 2910: ep_data_out[SetupPkt.EPNum].bits.transfer_terminated = 0;
  7501  02D7  0854               	movf	84,w	;volatile
  7502  02D8  390F               	andlw	15
  7503  02D9  3EC3               	addlw	(low (_ep_data_out| (0+256)))& (0+255)
  7504  02DA  2ADE               	goto	L9
  7505  02DB                     i1l3046:	
  7506                           ;usb_device.c: 2911: }
  7507                           
  7508                           
  7509                           ;usb_device.c: 2912: else
  7510                           ;usb_device.c: 2913: {
  7511                           ;usb_device.c: 2914: ep_data_in[SetupPkt.EPNum].bits.transfer_terminated = 0;
  7512  02DB  0854               	movf	84,w	;volatile
  7513  02DC  390F               	andlw	15
  7514  02DD  3EC0               	addlw	(low (_ep_data_in| (0+256)))& (0+255)
  7515  02DE                     L9:	
  7516  02DE  0086               	movwf	6
  7517  02DF  3001               	movlw	1	; select bank3/4
  7518  02E0  0087               	movwf	7
  7519  02E1  1081               	bcf	1,1
  7520                           
  7521                           ;usb_device.c: 2915: }
  7522                           ;usb_device.c: 2917: p->STAT.Val &= ~(0x80 | 0x40 | 0x04);
  7523  02E2  303B               	movlw	59
  7524  02E3  00E6               	movwf	??_USBStdFeatureReqHandler
  7525  02E4  086B               	movf	USBStdFeatureReqHandler@p,w
  7526  02E5  0086               	movwf	6
  7527  02E6  086C               	movf	USBStdFeatureReqHandler@p+1,w
  7528  02E7  0087               	movwf	7
  7529  02E8  0866               	movf	??_USBStdFeatureReqHandler,w
  7530  02E9  0581               	andwf	1,f
  7531                           
  7532                           ;usb_device.c: 2920: USER_USB_CALLBACK_EVENT_HANDLER(EVENT_TRANSFER_TERMINATED,p,sizeof(
      +                          p));
  7533  02EA  3000               	movlw	0
  7534  02EB  00E1               	movwf	USER_USB_CALLBACK_EVENT_HANDLER@event+1
  7535  02EC  3005               	movlw	5
  7536  02ED  00E0               	movwf	USER_USB_CALLBACK_EVENT_HANDLER@event
  7537  02EE  086C               	movf	USBStdFeatureReqHandler@p+1,w
  7538  02EF  00E3               	movwf	USER_USB_CALLBACK_EVENT_HANDLER@pdata+1
  7539  02F0  086B               	movf	USBStdFeatureReqHandler@p,w
  7540  02F1  00E2               	movwf	USER_USB_CALLBACK_EVENT_HANDLER@pdata
  7541  02F2  3002               	movlw	2
  7542  02F3  00E4               	movwf	USER_USB_CALLBACK_EVENT_HANDLER@size
  7543  02F4  3000               	movlw	0
  7544  02F5  00E5               	movwf	USER_USB_CALLBACK_EVENT_HANDLER@size+1
  7545  02F6  3189  2108  3181   	fcall	_USER_USB_CALLBACK_EVENT_HANDLER
  7546                           
  7547                           ;usb_device.c: 2921: }
  7548  02F9  2B03               	goto	i1l3052
  7549  02FA                     i1l3050:	
  7550                           
  7551                           ;usb_device.c: 2922: else
  7552                           ;usb_device.c: 2923: {
  7553                           ;usb_device.c: 2925: p->STAT.Val &= ~(0x80 | 0x40 | 0x04);
  7554  02FA  303B               	movlw	59
  7555  02FB  0020               	movlb	0	; select bank0
  7556  02FC  00E6               	movwf	??_USBStdFeatureReqHandler
  7557  02FD  086B               	movf	USBStdFeatureReqHandler@p,w
  7558  02FE  0086               	movwf	6
  7559  02FF  086C               	movf	USBStdFeatureReqHandler@p+1,w
  7560  0300  0087               	movwf	7
  7561  0301  0866               	movf	??_USBStdFeatureReqHandler,w
  7562  0302  0581               	andwf	1,f
  7563  0303                     i1l3052:	
  7564                           
  7565                           ;usb_device.c: 2926: }
  7566                           ;usb_device.c: 2973: pUEP = (unsigned char*)(&UEP0+SetupPkt.EPNum);
  7567  0303  0020               	movlb	0	; select bank0
  7568  0304  0854               	movf	84,w	;volatile
  7569  0305  390F               	andlw	15
  7570  0306  3E98               	addlw	152
  7571  0307  00E6               	movwf	??_USBStdFeatureReqHandler
  7572  0308  01E7               	clrf	??_USBStdFeatureReqHandler+1
  7573  0309  300E               	movlw	14
  7574  030A  3DE7               	addwfc	??_USBStdFeatureReqHandler+1,f
  7575  030B  0866               	movf	??_USBStdFeatureReqHandler,w
  7576  030C  00E8               	movwf	USBStdFeatureReqHandler@pUEP
  7577  030D  0867               	movf	??_USBStdFeatureReqHandler+1,w
  7578  030E  00E9               	movwf	USBStdFeatureReqHandler@pUEP+1
  7579                           
  7580                           ;usb_device.c: 2977: *pUEP &= ~0x0001;
  7581  030F  30FE               	movlw	254
  7582  0310  00E6               	movwf	??_USBStdFeatureReqHandler
  7583  0311  0868               	movf	USBStdFeatureReqHandler@pUEP,w
  7584  0312  0086               	movwf	6
  7585  0313  0869               	movf	USBStdFeatureReqHandler@pUEP+1,w
  7586  0314  0087               	movwf	7
  7587  0315  0866               	movf	??_USBStdFeatureReqHandler,w
  7588  0316  0581               	andwf	1,f
  7589  0317  0008               	return
  7590  0318                     __end_of_USBStdFeatureReqHandler:	
  7591                           
  7592                           	psect	text28
  7593  0908                     __ptext28:	
  7594 ;; *************** function _USER_USB_CALLBACK_EVENT_HANDLER *****************
  7595 ;; Defined at:
  7596 ;;		line 51 in file "../src/usb_events.c"
  7597 ;; Parameters:    Size  Location     Type
  7598 ;;  event           2    0[BANK0 ] enum E2658
  7599 ;;  pdata           2    2[BANK0 ] PTR void 
  7600 ;;		 -> RAM(4096), USTATcopy(1), USBActiveConfiguration(1), NULL(0), 
  7601 ;;		 -> BDT(48), 
  7602 ;;  size            2    4[BANK0 ] unsigned int 
  7603 ;; Auto vars:     Size  Location     Type
  7604 ;;		None
  7605 ;; Return value:  Size  Location     Type
  7606 ;;                  1    wreg      unsigned char 
  7607 ;; Registers used:
  7608 ;;		wreg, fsr0l, fsr0h, fsr1l, fsr1h, status,2, status,0, pclath, cstack
  7609 ;; Tracked objects:
  7610 ;;		On entry : 0/0
  7611 ;;		On exit  : 0/0
  7612 ;;		Unchanged: 0/0
  7613 ;; Data sizes:     COMMON   BANK0   BANK1   BANK2   BANK3   BANK4   BANK5   BANK6   BANK7   BANK8   BANK9  BANK10  BANK1
      +1  BANK12
  7614 ;;      Params:         0       6       0       0       0       0       0       0       0       0       0       0       
      +0       0
  7615 ;;      Locals:         0       0       0       0       0       0       0       0       0       0       0       0       
      +0       0
  7616 ;;      Temps:          0       0       0       0       0       0       0       0       0       0       0       0       
      +0       0
  7617 ;;      Totals:         0       6       0       0       0       0       0       0       0       0       0       0       
      +0       0
  7618 ;;Total ram usage:        6 bytes
  7619 ;; Hardware stack levels used:    1
  7620 ;; Hardware stack levels required when called:    3
  7621 ;; This function calls:
  7622 ;;		_USBCheckCDCRequest
  7623 ;;		i1_CDCInitEP
  7624 ;;		i1_SYSTEM_Initialize
  7625 ;; This function is called by:
  7626 ;;		_USBDeviceTasks
  7627 ;;		_USBStdSetCfgHandler
  7628 ;;		_USBSuspend
  7629 ;;		_USBWakeFromSuspend
  7630 ;;		_USBCtrlTrfSetupHandler
  7631 ;;		_USBCheckStdRequest
  7632 ;;		_USBStdFeatureReqHandler
  7633 ;; This function uses a non-reentrant model
  7634 ;;
  7635                           
  7636                           
  7637                           ;psect for function _USER_USB_CALLBACK_EVENT_HANDLER
  7638  0908                     _USER_USB_CALLBACK_EVENT_HANDLER:	
  7639                           
  7640                           ;usb_events.c: 53: switch( (int) event )
  7641                           
  7642                           ;incstack = 0
  7643                           ; Regs used in _USER_USB_CALLBACK_EVENT_HANDLER: [wreg-fsr1h+status,2+status,0+pclath+cs
      +                          tack]
  7644  0908  2917               	goto	i1l2742
  7645  0909                     i1l2732:	
  7646                           ;usb_events.c: 64: case EVENT_SUSPEND:
  7647                           
  7648                           ;usb_events.c: 62: break;
  7649                           
  7650                           ;usb_events.c: 58: case EVENT_SOF:
  7651                           
  7652                           ;usb_events.c: 56: break;
  7653                           
  7654                           ;usb_events.c: 54: {
  7655                           ;usb_events.c: 55: case EVENT_TRANSFER:
  7656                           
  7657                           
  7658                           ;usb_events.c: 74: SYSTEM_Initialize(SYSTEM_STATE_USB_SUSPEND);
  7659  0909  3001               	movlw	1
  7660  090A  3197  274D         	fcall	i1_SYSTEM_Initialize
  7661                           
  7662                           ;usb_events.c: 75: break;
  7663  090C  0008               	return
  7664  090D                     i1l2734:	
  7665                           ;usb_events.c: 77: case EVENT_RESUME:
  7666                           
  7667                           
  7668                           ;usb_events.c: 85: SYSTEM_Initialize(SYSTEM_STATE_USB_RESUME);
  7669  090D  3002               	movlw	2
  7670  090E  3197  274D         	fcall	i1_SYSTEM_Initialize
  7671                           
  7672                           ;usb_events.c: 86: break;
  7673  0910  0008               	return
  7674  0911                     i1l2736:	
  7675                           ;usb_events.c: 88: case EVENT_CONFIGURED:
  7676                           
  7677                           
  7678                           ;usb_events.c: 91: CDCInitEP();
  7679  0911  3188  209C         	fcall	i1_CDCInitEP
  7680                           
  7681                           ;usb_events.c: 96: break;
  7682                           
  7683                           ;usb_events.c: 95: case EVENT_SET_DESCRIPTOR:
  7684                           
  7685                           ;usb_events.c: 93: break;
  7686  0913  0008               	return
  7687  0914                     i1l2738:	
  7688                           ;usb_events.c: 98: case EVENT_EP0_REQUEST:
  7689                           
  7690                           
  7691                           ;usb_events.c: 101: USBCheckCDCRequest();
  7692  0914  318B  23B5         	fcall	_USBCheckCDCRequest
  7693                           
  7694                           ;usb_events.c: 112: }
  7695                           
  7696                           ;usb_events.c: 111: break;
  7697                           
  7698                           ;usb_events.c: 110: default:
  7699                           
  7700                           ;usb_events.c: 108: break;
  7701                           
  7702                           ;usb_events.c: 107: case EVENT_TRANSFER_TERMINATED:
  7703                           
  7704                           ;usb_events.c: 105: break;
  7705                           
  7706                           ;usb_events.c: 104: case EVENT_BUS_ERROR:
  7707                           
  7708                           ;usb_events.c: 102: break;
  7709  0916  0008               	return
  7710  0917                     i1l2742:	
  7711                           
  7712                           ; Switch on 2 bytes has been partitioned into a top level switch of size 1, and 2 sub-sw
      +                          itches
  7713                           ; Switch size 1, requested type "space"
  7714                           ; Number of cases is 2, Range of values is 0 to 127
  7715                           ; switch strategies available:
  7716                           ; Name         Instructions Cycles
  7717                           ; simple_byte            7     4 (average)
  7718                           ; direct_byte          262     6 (fixed)
  7719                           ; jumptable            260     6 (fixed)
  7720                           ;	Chosen strategy is simple_byte
  7721  0917  0020               	movlb	0	; select bank0
  7722  0918  0861               	movf	USER_USB_CALLBACK_EVENT_HANDLER@event+1,w
  7723  0919  3A00               	xorlw	0	; case 0
  7724  091A  1903               	skipnz
  7725  091B  2920               	goto	i1l4572
  7726  091C  3A7F               	xorlw	127	; case 127
  7727  091D  1903               	skipnz
  7728  091E  293A               	goto	i1l4574
  7729  091F  293F               	goto	i1l35
  7730  0920                     i1l4572:	
  7731                           
  7732                           ; Switch size 1, requested type "space"
  7733                           ; Number of cases is 8, Range of values is 1 to 117
  7734                           ; switch strategies available:
  7735                           ; Name         Instructions Cycles
  7736                           ; simple_byte           25    13 (average)
  7737                           ; direct_byte          243     9 (fixed)
  7738                           ; jumptable            263     9 (fixed)
  7739                           ;	Chosen strategy is simple_byte
  7740  0920  0860               	movf	USER_USB_CALLBACK_EVENT_HANDLER@event,w
  7741  0921  3A01               	xorlw	1	; case 1
  7742  0922  1903               	skipnz
  7743  0923  2911               	goto	i1l2736
  7744  0924  3A03               	xorlw	3	; case 2
  7745  0925  1903               	skipnz
  7746  0926  293F               	goto	i1l35
  7747  0927  3A01               	xorlw	1	; case 3
  7748  0928  1903               	skipnz
  7749  0929  2914               	goto	i1l2738
  7750  092A  3A06               	xorlw	6	; case 5
  7751  092B  1903               	skipnz
  7752  092C  293F               	goto	i1l35
  7753  092D  3A77               	xorlw	119	; case 114
  7754  092E  1903               	skipnz
  7755  092F  293F               	goto	i1l35
  7756  0930  3A01               	xorlw	1	; case 115
  7757  0931  1903               	skipnz
  7758  0932  293F               	goto	i1l35
  7759  0933  3A07               	xorlw	7	; case 116
  7760  0934  1903               	skipnz
  7761  0935  290D               	goto	i1l2734
  7762  0936  3A01               	xorlw	1	; case 117
  7763  0937  1903               	skipnz
  7764  0938  2909               	goto	i1l2732
  7765  0939  293F               	goto	i1l35
  7766  093A                     i1l4574:	
  7767                           
  7768                           ; Switch size 1, requested type "space"
  7769                           ; Number of cases is 1, Range of values is 255 to 255
  7770                           ; switch strategies available:
  7771                           ; Name         Instructions Cycles
  7772                           ; simple_byte            4     3 (average)
  7773                           ; direct_byte            7     5 (fixed)
  7774                           ; jumptable            263     9 (fixed)
  7775                           ;	Chosen strategy is simple_byte
  7776  093A  0860               	movf	USER_USB_CALLBACK_EVENT_HANDLER@event,w
  7777  093B  3AFF               	xorlw	255	; case 255
  7778  093C  1903               	skipnz
  7779  093D  293F               	goto	i1l35
  7780  093E  293F               	goto	i1l35
  7781  093F                     i1l35:	
  7782                           ;usb_events.c: 113: return 1;
  7783                           ;	Return value of _USER_USB_CALLBACK_EVENT_HANDLER is never used
  7784                           
  7785  093F  0008               	return
  7786  0940                     __end_of_USER_USB_CALLBACK_EVENT_HANDLER:	
  7787                           
  7788                           	psect	text29
  7789  174D                     __ptext29:	
  7790 ;; *************** function i1_SYSTEM_Initialize *****************
  7791 ;; Defined at:
  7792 ;;		line 82 in file "system.c"
  7793 ;; Parameters:    Size  Location     Type
  7794 ;;  state           1    wreg     enum E2613
  7795 ;; Auto vars:     Size  Location     Type
  7796 ;;  state           1    0[COMMON] enum E2613
  7797 ;; Return value:  Size  Location     Type
  7798 ;;                  1    wreg      void 
  7799 ;; Registers used:
  7800 ;;		wreg, fsr0l, fsr0h, status,2, status,0
  7801 ;; Tracked objects:
  7802 ;;		On entry : 0/0
  7803 ;;		On exit  : 0/0
  7804 ;;		Unchanged: 0/0
  7805 ;; Data sizes:     COMMON   BANK0   BANK1   BANK2   BANK3   BANK4   BANK5   BANK6   BANK7   BANK8   BANK9  BANK10  BANK1
      +1  BANK12
  7806 ;;      Params:         0       0       0       0       0       0       0       0       0       0       0       0       
      +0       0
  7807 ;;      Locals:         1       0       0       0       0       0       0       0       0       0       0       0       
      +0       0
  7808 ;;      Temps:          0       0       0       0       0       0       0       0       0       0       0       0       
      +0       0
  7809 ;;      Totals:         1       0       0       0       0       0       0       0       0       0       0       0       
      +0       0
  7810 ;;Total ram usage:        1 bytes
  7811 ;; Hardware stack levels used:    1
  7812 ;; This function calls:
  7813 ;;		Nothing
  7814 ;; This function is called by:
  7815 ;;		_USER_USB_CALLBACK_EVENT_HANDLER
  7816 ;; This function uses a non-reentrant model
  7817 ;;
  7818                           
  7819                           
  7820                           ;psect for function i1_SYSTEM_Initialize
  7821  174D                     i1_SYSTEM_Initialize:	
  7822                           
  7823                           ;incstack = 0
  7824                           ; Regs used in i1_SYSTEM_Initialize: [wreg-fsr0h+status,2+status,0]
  7825                           ;i1SYSTEM_Initialize@state stored from wreg
  7826  174D  00F0               	movwf	i1SYSTEM_Initialize@state
  7827                           
  7828                           ;system.c: 84: switch(state)
  7829  174E  2F56               	goto	i1l2728
  7830  174F                     i1l2724:	
  7831                           ;system.c: 85: {
  7832                           ;system.c: 86: case SYSTEM_STATE_USB_START:
  7833                           
  7834                           
  7835                           ;system.c: 90: OSCCON = 0xFC;
  7836  174F  30FC               	movlw	252
  7837  1750  0021               	movlb	1	; select bank1
  7838  1751  0099               	movwf	25	;volatile
  7839                           
  7840                           ;system.c: 91: ACTCON = 0x90;
  7841  1752  3090               	movlw	144
  7842  1753  0027               	movlb	7	; select bank7
  7843  1754  009B               	movwf	27	;volatile
  7844                           
  7845                           ;system.c: 102: }
  7846                           
  7847                           ;system.c: 101: break;
  7848                           
  7849                           ;system.c: 100: case SYSTEM_STATE_USB_RESUME:
  7850                           
  7851                           ;system.c: 98: break;
  7852                           
  7853                           ;system.c: 97: case SYSTEM_STATE_USB_SUSPEND:
  7854                           
  7855                           ;system.c: 95: break;
  7856  1755  0008               	return
  7857  1756                     i1l2728:	
  7858  1756  0870               	movf	i1SYSTEM_Initialize@state,w
  7859                           
  7860                           ; Switch size 1, requested type "space"
  7861                           ; Number of cases is 3, Range of values is 0 to 2
  7862                           ; switch strategies available:
  7863                           ; Name         Instructions Cycles
  7864                           ; simple_byte           10     6 (average)
  7865                           ; direct_byte           12     6 (fixed)
  7866                           ; jumptable            260     6 (fixed)
  7867                           ;	Chosen strategy is simple_byte
  7868  1757  3A00               	xorlw	0	; case 0
  7869  1758  1903               	skipnz
  7870  1759  2F4F               	goto	i1l2724
  7871  175A  3A01               	xorlw	1	; case 1
  7872  175B  1903               	skipnz
  7873  175C  2F61               	goto	i1l565
  7874  175D  3A03               	xorlw	3	; case 2
  7875  175E  1903               	skipnz
  7876  175F  2F61               	goto	i1l565
  7877  1760  2F61               	goto	i1l565
  7878  1761                     i1l565:	
  7879  1761  0008               	return
  7880  1762                     __end_ofi1_SYSTEM_Initialize:	
  7881                           
  7882                           	psect	text30
  7883  089C                     __ptext30:	
  7884 ;; *************** function i1_CDCInitEP *****************
  7885 ;; Defined at:
  7886 ;;		line 294 in file "../lib/usb/src/usb_device_cdc.c"
  7887 ;; Parameters:    Size  Location     Type
  7888 ;;		None
  7889 ;; Auto vars:     Size  Location     Type
  7890 ;;		None
  7891 ;; Return value:  Size  Location     Type
  7892 ;;                  1    wreg      void 
  7893 ;; Registers used:
  7894 ;;		wreg, fsr1l, fsr1h, status,2, status,0, pclath, cstack
  7895 ;; Tracked objects:
  7896 ;;		On entry : 0/0
  7897 ;;		On exit  : 0/0
  7898 ;;		Unchanged: 0/0
  7899 ;; Data sizes:     COMMON   BANK0   BANK1   BANK2   BANK3   BANK4   BANK5   BANK6   BANK7   BANK8   BANK9  BANK10  BANK1
      +1  BANK12
  7900 ;;      Params:         0       0       0       0       0       0       0       0       0       0       0       0       
      +0       0
  7901 ;;      Locals:         0       0       0       0       0       0       0       0       0       0       0       0       
      +0       0
  7902 ;;      Temps:          1       0       0       0       0       0       0       0       0       0       0       0       
      +0       0
  7903 ;;      Totals:         1       0       0       0       0       0       0       0       0       0       0       0       
      +0       0
  7904 ;;Total ram usage:        1 bytes
  7905 ;; Hardware stack levels used:    1
  7906 ;; Hardware stack levels required when called:    2
  7907 ;; This function calls:
  7908 ;;		i1_USBEnableEndpoint
  7909 ;;		i1_USBTransferOnePacket
  7910 ;; This function is called by:
  7911 ;;		_USER_USB_CALLBACK_EVENT_HANDLER
  7912 ;; This function uses a non-reentrant model
  7913 ;;
  7914                           
  7915                           
  7916                           ;psect for function i1_CDCInitEP
  7917  089C                     i1_CDCInitEP:	
  7918                           
  7919                           ;usb_device_cdc.c: 297: line_coding.dwDTERate = 19200;
  7920                           
  7921                           ;incstack = 0
  7922                           ; Regs used in i1_CDCInitEP: [wreg+fsr1l+fsr1h+status,2+status,0+pclath+cstack]
  7923  089C  3000               	movlw	0
  7924  089D  0023               	movlb	3	; select bank3
  7925  089E  00E3               	movwf	(_line_coding+3)^(0+384)
  7926  089F  3000               	movlw	0
  7927  08A0  00E2               	movwf	(_line_coding+2)^(0+384)
  7928  08A1  304B               	movlw	75
  7929  08A2  00E1               	movwf	(_line_coding+1)^(0+384)
  7930  08A3  3000               	movlw	0
  7931  08A4  00E0               	movwf	_line_coding^(0+384)
  7932                           
  7933                           ;usb_device_cdc.c: 298: line_coding.bCharFormat = 0x00;
  7934  08A5  01E4               	clrf	(_line_coding^(0+384)+4)
  7935                           
  7936                           ;usb_device_cdc.c: 299: line_coding.bParityType = 0x00;
  7937  08A6  01E5               	clrf	(_line_coding^(0+384)+5)
  7938                           
  7939                           ;usb_device_cdc.c: 300: line_coding.bDataBits = 0x08;
  7940  08A7  3008               	movlw	8
  7941  08A8  00FD               	movwf	??i1_CDCInitEP
  7942  08A9  087D               	movf	??i1_CDCInitEP,w
  7943  08AA  00E6               	movwf	(_line_coding^(0+384)+6)
  7944                           
  7945                           ;usb_device_cdc.c: 302: cdc_rx_len = 0;
  7946  08AB  01D9               	clrf	_cdc_rx_len^(0+384)
  7947                           
  7948                           ;usb_device_cdc.c: 315: USBEnableEndpoint(1,0x02|0x10|0x08);
  7949  08AC  301A               	movlw	26
  7950  08AD  00FD               	movwf	??i1_CDCInitEP
  7951  08AE  087D               	movf	??i1_CDCInitEP,w
  7952  08AF  00F7               	movwf	i1USBEnableEndpoint@options
  7953  08B0  3001               	movlw	1
  7954  08B1  3188  2012  3188   	fcall	i1_USBEnableEndpoint
  7955                           
  7956                           ;usb_device_cdc.c: 316: USBEnableEndpoint(2,0x02|0x04|0x10|0x08);
  7957  08B4  301E               	movlw	30
  7958  08B5  00FD               	movwf	??i1_CDCInitEP
  7959  08B6  087D               	movf	??i1_CDCInitEP,w
  7960  08B7  00F7               	movwf	i1USBEnableEndpoint@options
  7961  08B8  3002               	movlw	2
  7962  08B9  3188  2012  3188   	fcall	i1_USBEnableEndpoint
  7963                           
  7964                           ;usb_device_cdc.c: 318: CDCDataOutHandle = USBTransferOnePacket(2,0,(uint8_t*)&cdc_data_
      +                          rx,sizeof(cdc_data_rx));
  7965  08BC  01F0               	clrf	i1USBTransferOnePacket@dir
  7966  08BD  3020               	movlw	32
  7967  08BE  00F1               	movwf	i1USBTransferOnePacket@data
  7968  08BF  3001               	movlw	1
  7969  08C0  00F2               	movwf	i1USBTransferOnePacket@data+1
  7970  08C1  3040               	movlw	64
  7971  08C2  00FD               	movwf	??i1_CDCInitEP
  7972  08C3  087D               	movf	??i1_CDCInitEP,w
  7973  08C4  00F3               	movwf	i1USBTransferOnePacket@len
  7974  08C5  3002               	movlw	2
  7975  08C6  318D  25D9         	fcall	i1_USBTransferOnePacket
  7976  08C8  0871               	movf	?i1_USBTransferOnePacket+1,w
  7977  08C9  0023               	movlb	3	; select bank3
  7978  08CA  00C9               	movwf	(_CDCDataOutHandle+1)^(0+384)
  7979  08CB  0870               	movf	?i1_USBTransferOnePacket,w
  7980  08CC  00C8               	movwf	_CDCDataOutHandle^(0+384)
  7981                           
  7982                           ;usb_device_cdc.c: 319: CDCDataInHandle = (0);
  7983  08CD  01C6               	clrf	_CDCDataInHandle^(0+384)
  7984  08CE  01C7               	clrf	(_CDCDataInHandle+1)^(0+384)
  7985                           
  7986                           ;usb_device_cdc.c: 346: cdc_trf_state = 0;
  7987  08CF  01DA               	clrf	_cdc_trf_state^(0+384)
  7988  08D0  0008               	return
  7989  08D1                     __end_ofi1_CDCInitEP:	
  7990                           
  7991                           	psect	text31
  7992  0DD9                     __ptext31:	
  7993 ;; *************** function i1_USBTransferOnePacket *****************
  7994 ;; Defined at:
  7995 ;;		line 995 in file "../lib/usb/src/usb_device.c"
  7996 ;; Parameters:    Size  Location     Type
  7997 ;;  ep              1    wreg     unsigned char 
  7998 ;;  dir             1    0[COMMON] unsigned char 
  7999 ;;  data            2    1[COMMON] PTR unsigned char 
  8000 ;;		 -> cdc_data_tx(64), cdc_data_rx(64), NULL(0), 
  8001 ;;  len             1    3[COMMON] unsigned char 
  8002 ;; Auto vars:     Size  Location     Type
  8003 ;;  ep              1    8[COMMON] unsigned char 
  8004 ;;  USBTransferO    2    9[COMMON] PTR volatile struct __BD
  8005 ;;		 -> RAM(4096), NULL(0), BDT(48), 
  8006 ;; Return value:  Size  Location     Type
  8007 ;;                  2    0[COMMON] PTR void 
  8008 ;; Registers used:
  8009 ;;		wreg, fsr1l, fsr1h, status,2, status,0
  8010 ;; Tracked objects:
  8011 ;;		On entry : 0/0
  8012 ;;		On exit  : 0/0
  8013 ;;		Unchanged: 0/0
  8014 ;; Data sizes:     COMMON   BANK0   BANK1   BANK2   BANK3   BANK4   BANK5   BANK6   BANK7   BANK8   BANK9  BANK10  BANK1
      +1  BANK12
  8015 ;;      Params:         4       0       0       0       0       0       0       0       0       0       0       0       
      +0       0
  8016 ;;      Locals:         3       0       0       0       0       0       0       0       0       0       0       0       
      +0       0
  8017 ;;      Temps:          4       0       0       0       0       0       0       0       0       0       0       0       
      +0       0
  8018 ;;      Totals:        11       0       0       0       0       0       0       0       0       0       0       0       
      +0       0
  8019 ;;Total ram usage:       11 bytes
  8020 ;; Hardware stack levels used:    1
  8021 ;; This function calls:
  8022 ;;		Nothing
  8023 ;; This function is called by:
  8024 ;;		i1_CDCInitEP
  8025 ;; This function uses a non-reentrant model
  8026 ;;
  8027                           
  8028                           
  8029                           ;psect for function i1_USBTransferOnePacket
  8030  0DD9                     i1_USBTransferOnePacket:	
  8031                           
  8032                           ;incstack = 0
  8033                           ; Regs used in i1_USBTransferOnePacket: [wreg+fsr1l+fsr1h+status,2+status,0]
  8034                           ;i1USBTransferOnePacket@ep stored from wreg
  8035  0DD9  00F8               	movwf	i1USBTransferOnePacket@ep
  8036                           
  8037                           ;usb_device.c: 997: volatile BDT_ENTRY* handle;
  8038                           ;usb_device.c: 1000: if(dir != 0)
  8039  0DDA  0870               	movf	i1USBTransferOnePacket@dir,w
  8040  0DDB  1903               	btfsc	3,2
  8041  0DDC  2DE6               	goto	i1l2634
  8042                           
  8043                           ;usb_device.c: 1001: {
  8044                           ;usb_device.c: 1003: handle = pBDTEntryIn[ep];
  8045  0DDD  3578               	lslf	i1USBTransferOnePacket@ep,w
  8046  0DDE  3EA7               	addlw	(low (_pBDTEntryIn| (0+256)))& (0+255)
  8047  0DDF  0086               	movwf	6
  8048  0DE0  3001               	movlw	1	; select bank3/4
  8049  0DE1  0087               	movwf	7
  8050  0DE2  3F40               	moviw [0]fsr1
  8051  0DE3  00F9               	movwf	i1USBTransferOnePacket@handle
  8052  0DE4  3F41               	moviw [1]fsr1
  8053  0DE5  2DEE               	goto	L10
  8054  0DE6                     i1l2634:	
  8055                           ;usb_device.c: 1004: }
  8056                           
  8057                           
  8058                           ;usb_device.c: 1005: else
  8059                           ;usb_device.c: 1006: {
  8060                           ;usb_device.c: 1008: handle = pBDTEntryOut[ep];
  8061  0DE6  3578               	lslf	i1USBTransferOnePacket@ep,w
  8062  0DE7  3EAD               	addlw	(low (_pBDTEntryOut| (0+256)))& (0+255)
  8063  0DE8  0086               	movwf	6
  8064  0DE9  3001               	movlw	1	; select bank3/4
  8065  0DEA  0087               	movwf	7
  8066  0DEB  3F40               	moviw [0]fsr1
  8067  0DEC  00F9               	movwf	i1USBTransferOnePacket@handle
  8068  0DED  3F41               	moviw [1]fsr1
  8069  0DEE                     L10:	
  8070  0DEE  00FA               	movwf	i1USBTransferOnePacket@handle+1
  8071                           
  8072                           ;usb_device.c: 1009: }
  8073                           ;usb_device.c: 1013: if(handle == 0)
  8074  0DEF  0879               	movf	i1USBTransferOnePacket@handle,w
  8075  0DF0  047A               	iorwf	i1USBTransferOnePacket@handle+1,w
  8076  0DF1  1D03               	btfss	3,2
  8077  0DF2  2DF6               	goto	i1l2642
  8078                           
  8079                           ;usb_device.c: 1014: {
  8080                           ;usb_device.c: 1015: return 0;
  8081  0DF3  01F0               	clrf	?i1_USBTransferOnePacket
  8082  0DF4  01F1               	clrf	?i1_USBTransferOnePacket+1
  8083  0DF5  0008               	return
  8084  0DF6                     i1l2642:	
  8085                           
  8086                           ;usb_device.c: 1016: }
  8087                           ;usb_device.c: 1029: handle->ADR = (((uint16_t)(data)) & 0x7FFF);
  8088  0DF6  30FF               	movlw	255
  8089  0DF7  0571               	andwf	i1USBTransferOnePacket@data,w
  8090  0DF8  00F4               	movwf	??i1_USBTransferOnePacket
  8091  0DF9  307F               	movlw	127
  8092  0DFA  0572               	andwf	i1USBTransferOnePacket@data+1,w
  8093  0DFB  00F5               	movwf	??i1_USBTransferOnePacket+1
  8094  0DFC  0879               	movf	i1USBTransferOnePacket@handle,w
  8095  0DFD  0086               	movwf	6
  8096  0DFE  087A               	movf	i1USBTransferOnePacket@handle+1,w
  8097  0DFF  0087               	movwf	7
  8098  0E00  3142               	addfsr 1,2
  8099  0E01  0874               	movf	??i1_USBTransferOnePacket,w
  8100  0E02  3FC0               	movwi [0]fsr1
  8101  0E03  0875               	movf	??i1_USBTransferOnePacket+1,w
  8102  0E04  3FC1               	movwi [1]fsr1
  8103                           
  8104                           ;usb_device.c: 1030: handle->CNT = len;
  8105  0E05  0879               	movf	i1USBTransferOnePacket@handle,w
  8106  0E06  3E01               	addlw	1
  8107  0E07  00F4               	movwf	??i1_USBTransferOnePacket
  8108  0E08  3000               	movlw	0
  8109  0E09  3D7A               	addwfc	i1USBTransferOnePacket@handle+1,w
  8110  0E0A  00F5               	movwf	??i1_USBTransferOnePacket+1
  8111  0E0B  0874               	movf	??i1_USBTransferOnePacket,w
  8112  0E0C  0086               	movwf	6
  8113  0E0D  0875               	movf	??i1_USBTransferOnePacket+1,w
  8114  0E0E  0087               	movwf	7
  8115  0E0F  0873               	movf	i1USBTransferOnePacket@len,w
  8116  0E10  0081               	movwf	1
  8117                           
  8118                           ;usb_device.c: 1031: handle->STAT.Val &= 0x40;
  8119  0E11  3040               	movlw	64
  8120  0E12  00F4               	movwf	??i1_USBTransferOnePacket
  8121  0E13  0879               	movf	i1USBTransferOnePacket@handle,w
  8122  0E14  0086               	movwf	6
  8123  0E15  087A               	movf	i1USBTransferOnePacket@handle+1,w
  8124  0E16  0087               	movwf	7
  8125  0E17  0874               	movf	??i1_USBTransferOnePacket,w
  8126  0E18  0581               	andwf	1,f
  8127                           
  8128                           ;usb_device.c: 1032: handle->STAT.Val |= (0x08 & 0x08);
  8129  0E19  0879               	movf	i1USBTransferOnePacket@handle,w
  8130  0E1A  0086               	movwf	6
  8131  0E1B  087A               	movf	i1USBTransferOnePacket@handle+1,w
  8132  0E1C  0087               	movwf	7
  8133  0E1D  1581               	bsf	1,3
  8134                           
  8135                           ;usb_device.c: 1033: handle->STAT.Val |= 0x80;
  8136  0E1E  0879               	movf	i1USBTransferOnePacket@handle,w
  8137  0E1F  0086               	movwf	6
  8138  0E20  087A               	movf	i1USBTransferOnePacket@handle+1,w
  8139  0E21  0087               	movwf	7
  8140  0E22  1781               	bsf	1,7
  8141                           
  8142                           ;usb_device.c: 1036: if(dir != 0)
  8143  0E23  0870               	movf	i1USBTransferOnePacket@dir,w
  8144  0E24  1903               	btfsc	3,2
  8145  0E25  2E3F               	goto	i1l2652
  8146                           
  8147                           ;usb_device.c: 1037: {
  8148                           ;usb_device.c: 1039: pBDTEntryIn[ep] = (BDT_ENTRY*)(((uintptr_t)pBDTEntryIn[ep]) ^ 0x000
      +                          4);
  8149  0E26  3578               	lslf	i1USBTransferOnePacket@ep,w
  8150  0E27  3EA7               	addlw	(low (_pBDTEntryIn| (0+256)))& (0+255)
  8151  0E28  0086               	movwf	6
  8152  0E29  3001               	movlw	1	; select bank3/4
  8153  0E2A  0087               	movwf	7
  8154  0E2B  3F40               	moviw [0]fsr1
  8155  0E2C  00F4               	movwf	??i1_USBTransferOnePacket
  8156  0E2D  3F41               	moviw [1]fsr1
  8157  0E2E  00F5               	movwf	??i1_USBTransferOnePacket+1
  8158  0E2F  3004               	movlw	4
  8159  0E30  0674               	xorwf	??i1_USBTransferOnePacket,w
  8160  0E31  00F6               	movwf	??i1_USBTransferOnePacket+2
  8161  0E32  3000               	movlw	0
  8162  0E33  0675               	xorwf	??i1_USBTransferOnePacket+1,w
  8163  0E34  00F7               	movwf	??i1_USBTransferOnePacket+3
  8164  0E35  3578               	lslf	i1USBTransferOnePacket@ep,w
  8165  0E36  3EA7               	addlw	(low (_pBDTEntryIn| (0+256)))& (0+255)
  8166  0E37  0086               	movwf	6
  8167  0E38  3001               	movlw	1	; select bank3/4
  8168  0E39  0087               	movwf	7
  8169  0E3A  0876               	movf	??i1_USBTransferOnePacket+2,w
  8170  0E3B  3FC0               	movwi [0]fsr1
  8171  0E3C  0877               	movf	??i1_USBTransferOnePacket+3,w
  8172  0E3D  3FC1               	movwi [1]fsr1
  8173                           
  8174                           ;usb_device.c: 1040: }
  8175  0E3E  2E57               	goto	i1l2654
  8176  0E3F                     i1l2652:	
  8177                           
  8178                           ;usb_device.c: 1041: else
  8179                           ;usb_device.c: 1042: {
  8180                           ;usb_device.c: 1044: pBDTEntryOut[ep] = (BDT_ENTRY*)(((uintptr_t)pBDTEntryOut[ep]) ^ 0x0
      +                          004);
  8181  0E3F  3578               	lslf	i1USBTransferOnePacket@ep,w
  8182  0E40  3EAD               	addlw	(low (_pBDTEntryOut| (0+256)))& (0+255)
  8183  0E41  0086               	movwf	6
  8184  0E42  3001               	movlw	1	; select bank3/4
  8185  0E43  0087               	movwf	7
  8186  0E44  3F40               	moviw [0]fsr1
  8187  0E45  00F4               	movwf	??i1_USBTransferOnePacket
  8188  0E46  3F41               	moviw [1]fsr1
  8189  0E47  00F5               	movwf	??i1_USBTransferOnePacket+1
  8190  0E48  3004               	movlw	4
  8191  0E49  0674               	xorwf	??i1_USBTransferOnePacket,w
  8192  0E4A  00F6               	movwf	??i1_USBTransferOnePacket+2
  8193  0E4B  3000               	movlw	0
  8194  0E4C  0675               	xorwf	??i1_USBTransferOnePacket+1,w
  8195  0E4D  00F7               	movwf	??i1_USBTransferOnePacket+3
  8196  0E4E  3578               	lslf	i1USBTransferOnePacket@ep,w
  8197  0E4F  3EAD               	addlw	(low (_pBDTEntryOut| (0+256)))& (0+255)
  8198  0E50  0086               	movwf	6
  8199  0E51  3001               	movlw	1	; select bank3/4
  8200  0E52  0087               	movwf	7
  8201  0E53  0876               	movf	??i1_USBTransferOnePacket+2,w
  8202  0E54  3FC0               	movwi [0]fsr1
  8203  0E55  0877               	movf	??i1_USBTransferOnePacket+3,w
  8204  0E56  3FC1               	movwi [1]fsr1
  8205  0E57                     i1l2654:	
  8206                           
  8207                           ;usb_device.c: 1045: }
  8208                           ;usb_device.c: 1046: return (void*)handle;
  8209  0E57  087A               	movf	i1USBTransferOnePacket@handle+1,w
  8210  0E58  00F1               	movwf	?i1_USBTransferOnePacket+1
  8211  0E59  0879               	movf	i1USBTransferOnePacket@handle,w
  8212  0E5A  00F0               	movwf	?i1_USBTransferOnePacket
  8213  0E5B  0008               	return
  8214  0E5C                     __end_ofi1_USBTransferOnePacket:	
  8215                           
  8216                           	psect	text32
  8217  0812                     __ptext32:	
  8218 ;; *************** function i1_USBEnableEndpoint *****************
  8219 ;; Defined at:
  8220 ;;		line 878 in file "../lib/usb/src/usb_device.c"
  8221 ;; Parameters:    Size  Location     Type
  8222 ;;  ep              1    wreg     unsigned char 
  8223 ;;  options         1    7[COMMON] unsigned char 
  8224 ;; Auto vars:     Size  Location     Type
  8225 ;;  ep              1   12[COMMON] unsigned char 
  8226 ;;  USBEnableEnd    2   10[COMMON] PTR unsigned char 
  8227 ;;		 -> UEP0(1), 
  8228 ;; Return value:  Size  Location     Type
  8229 ;;                  1    wreg      void 
  8230 ;; Registers used:
  8231 ;;		wreg, fsr1l, fsr1h, status,2, status,0, pclath, cstack
  8232 ;; Tracked objects:
  8233 ;;		On entry : 0/0
  8234 ;;		On exit  : 0/0
  8235 ;;		Unchanged: 0/0
  8236 ;; Data sizes:     COMMON   BANK0   BANK1   BANK2   BANK3   BANK4   BANK5   BANK6   BANK7   BANK8   BANK9  BANK10  BANK1
      +1  BANK12
  8237 ;;      Params:         1       0       0       0       0       0       0       0       0       0       0       0       
      +0       0
  8238 ;;      Locals:         3       0       0       0       0       0       0       0       0       0       0       0       
      +0       0
  8239 ;;      Temps:          2       0       0       0       0       0       0       0       0       0       0       0       
      +0       0
  8240 ;;      Totals:         6       0       0       0       0       0       0       0       0       0       0       0       
      +0       0
  8241 ;;Total ram usage:        6 bytes
  8242 ;; Hardware stack levels used:    1
  8243 ;; Hardware stack levels required when called:    1
  8244 ;; This function calls:
  8245 ;;		i1_USBConfigureEndpoint
  8246 ;; This function is called by:
  8247 ;;		i1_CDCInitEP
  8248 ;; This function uses a non-reentrant model
  8249 ;;
  8250                           
  8251                           
  8252                           ;psect for function i1_USBEnableEndpoint
  8253  0812                     i1_USBEnableEndpoint:	
  8254                           
  8255                           ;incstack = 0
  8256                           ; Regs used in i1_USBEnableEndpoint: [wreg+fsr1l+fsr1h+status,2+status,0+pclath+cstack]
  8257                           ;i1USBEnableEndpoint@ep stored from wreg
  8258  0812  00FC               	movwf	i1USBEnableEndpoint@ep
  8259                           
  8260                           ;usb_device.c: 880: unsigned char* p;
  8261                           ;usb_device.c: 884: if(options & 0x04)
  8262  0813  1D77               	btfss	i1USBEnableEndpoint@options,2
  8263  0814  281A               	goto	i1l2622
  8264                           
  8265                           ;usb_device.c: 885: {
  8266                           ;usb_device.c: 886: USBConfigureEndpoint(ep, 0);
  8267  0815  01F0               	clrf	i1USBConfigureEndpoint@direction
  8268  0816  087C               	movf	i1USBEnableEndpoint@ep,w
  8269  0817  3189  217D  3188   	fcall	i1_USBConfigureEndpoint
  8270  081A                     i1l2622:	
  8271                           
  8272                           ;usb_device.c: 887: }
  8273                           ;usb_device.c: 888: if(options & 0x02)
  8274  081A  1CF7               	btfss	i1USBEnableEndpoint@options,1
  8275  081B  2821               	goto	i1l2626
  8276                           
  8277                           ;usb_device.c: 889: {
  8278                           ;usb_device.c: 890: USBConfigureEndpoint(ep, 1);
  8279  081C  01F0               	clrf	i1USBConfigureEndpoint@direction
  8280  081D  0AF0               	incf	i1USBConfigureEndpoint@direction,f
  8281  081E  087C               	movf	i1USBEnableEndpoint@ep,w
  8282  081F  3189  217D         	fcall	i1_USBConfigureEndpoint
  8283  0821                     i1l2626:	
  8284                           
  8285                           ;usb_device.c: 891: }
  8286                           ;usb_device.c: 899: p = (unsigned char*)(&UEP0+ep);
  8287  0821  087C               	movf	i1USBEnableEndpoint@ep,w
  8288  0822  3E98               	addlw	152
  8289  0823  00F8               	movwf	??i1_USBEnableEndpoint
  8290  0824  01F9               	clrf	??i1_USBEnableEndpoint+1
  8291  0825  300E               	movlw	14
  8292  0826  3DF9               	addwfc	??i1_USBEnableEndpoint+1,f
  8293  0827  0878               	movf	??i1_USBEnableEndpoint,w
  8294  0828  00FA               	movwf	i1USBEnableEndpoint@p
  8295  0829  0879               	movf	??i1_USBEnableEndpoint+1,w
  8296  082A  00FB               	movwf	i1USBEnableEndpoint@p+1
  8297                           
  8298                           ;usb_device.c: 901: *p = options;
  8299  082B  087A               	movf	i1USBEnableEndpoint@p,w
  8300  082C  0086               	movwf	6
  8301  082D  087B               	movf	i1USBEnableEndpoint@p+1,w
  8302  082E  0087               	movwf	7
  8303  082F  0877               	movf	i1USBEnableEndpoint@options,w
  8304  0830  0081               	movwf	1
  8305  0831  0008               	return
  8306  0832                     __end_ofi1_USBEnableEndpoint:	
  8307                           
  8308                           	psect	text33
  8309  097D                     __ptext33:	
  8310 ;; *************** function i1_USBConfigureEndpoint *****************
  8311 ;; Defined at:
  8312 ;;		line 1543 in file "../lib/usb/src/usb_device.c"
  8313 ;; Parameters:    Size  Location     Type
  8314 ;;  EPNum           1    wreg     unsigned char 
  8315 ;;  direction       1    0[COMMON] unsigned char 
  8316 ;; Auto vars:     Size  Location     Type
  8317 ;;  EPNum           1    5[COMMON] unsigned char 
  8318 ;;  USBConfigure    1    6[COMMON] PTR volatile struct __BD
  8319 ;;		 -> BDT(48), 
  8320 ;; Return value:  Size  Location     Type
  8321 ;;                  1    wreg      void 
  8322 ;; Registers used:
  8323 ;;		wreg, fsr1l, fsr1h, status,2, status,0
  8324 ;; Tracked objects:
  8325 ;;		On entry : 0/0
  8326 ;;		On exit  : 0/0
  8327 ;;		Unchanged: 0/0
  8328 ;; Data sizes:     COMMON   BANK0   BANK1   BANK2   BANK3   BANK4   BANK5   BANK6   BANK7   BANK8   BANK9  BANK10  BANK1
      +1  BANK12
  8329 ;;      Params:         1       0       0       0       0       0       0       0       0       0       0       0       
      +0       0
  8330 ;;      Locals:         2       0       0       0       0       0       0       0       0       0       0       0       
      +0       0
  8331 ;;      Temps:          4       0       0       0       0       0       0       0       0       0       0       0       
      +0       0
  8332 ;;      Totals:         7       0       0       0       0       0       0       0       0       0       0       0       
      +0       0
  8333 ;;Total ram usage:        7 bytes
  8334 ;; Hardware stack levels used:    1
  8335 ;; This function calls:
  8336 ;;		Nothing
  8337 ;; This function is called by:
  8338 ;;		i1_USBEnableEndpoint
  8339 ;; This function uses a non-reentrant model
  8340 ;;
  8341                           
  8342                           
  8343                           ;psect for function i1_USBConfigureEndpoint
  8344  097D                     i1_USBConfigureEndpoint:	
  8345                           
  8346                           ;incstack = 0
  8347                           ; Regs used in i1_USBConfigureEndpoint: [wreg+fsr1l+fsr1h+status,2+status,0]
  8348                           ;i1USBConfigureEndpoint@EPNum stored from wreg
  8349  097D  00F5               	movwf	i1USBConfigureEndpoint@EPNum
  8350                           
  8351                           ;usb_device.c: 1545: volatile BDT_ENTRY* handle;
  8352                           ;usb_device.c: 1549: handle = (volatile BDT_ENTRY*)&BDT[0];
  8353  097E  3020               	movlw	32
  8354  097F  00F1               	movwf	??i1_USBConfigureEndpoint
  8355  0980  0871               	movf	??i1_USBConfigureEndpoint,w
  8356  0981  00F6               	movwf	i1USBConfigureEndpoint@handle
  8357                           
  8358                           ;usb_device.c: 1550: handle += (4*EPNum+2*direction+0u);
  8359  0982  0870               	movf	i1USBConfigureEndpoint@direction,w
  8360  0983  00F1               	movwf	??i1_USBConfigureEndpoint
  8361  0984  3001               	movlw	1
  8362  0985                     u183_25:	
  8363  0985  35F1               	lslf	??i1_USBConfigureEndpoint,f
  8364  0986  0B89               	decfsz	9,f
  8365  0987  2985               	goto	u183_25
  8366  0988  0875               	movf	i1USBConfigureEndpoint@EPNum,w
  8367  0989  00F2               	movwf	??i1_USBConfigureEndpoint+1
  8368  098A  3001               	movlw	1
  8369  098B                     u184_25:	
  8370  098B  35F2               	lslf	??i1_USBConfigureEndpoint+1,f
  8371  098C  3EFF               	addlw	-1
  8372  098D  1D03               	skipz
  8373  098E  298B               	goto	u184_25
  8374  098F  3572               	lslf	??i1_USBConfigureEndpoint+1,w
  8375  0990  0771               	addwf	??i1_USBConfigureEndpoint,w
  8376  0991  00F3               	movwf	??i1_USBConfigureEndpoint+2
  8377  0992  3001               	movlw	1
  8378  0993                     u185_25:	
  8379  0993  35F3               	lslf	??i1_USBConfigureEndpoint+2,f
  8380  0994  3EFF               	addlw	-1
  8381  0995  1D03               	skipz
  8382  0996  2993               	goto	u185_25
  8383  0997  3573               	lslf	??i1_USBConfigureEndpoint+2,w
  8384  0998  00F4               	movwf	??i1_USBConfigureEndpoint+3
  8385  0999  0874               	movf	??i1_USBConfigureEndpoint+3,w
  8386  099A  07F6               	addwf	i1USBConfigureEndpoint@handle,f
  8387                           
  8388                           ;usb_device.c: 1552: handle->STAT.UOWN = 0;
  8389  099B  0876               	movf	i1USBConfigureEndpoint@handle,w
  8390  099C  0086               	movwf	6
  8391  099D  0187               	clrf	7
  8392  099E  1381               	bcf	1,7
  8393                           
  8394                           ;usb_device.c: 1557: if(direction == 0)
  8395  099F  0870               	movf	i1USBConfigureEndpoint@direction,w
  8396  09A0  1D03               	btfss	3,2
  8397  09A1  29AC               	goto	i1l2612
  8398                           
  8399                           ;usb_device.c: 1558: {
  8400                           ;usb_device.c: 1559: pBDTEntryOut[EPNum] = handle;
  8401  09A2  3575               	lslf	i1USBConfigureEndpoint@EPNum,w
  8402  09A3  3EAD               	addlw	(low (_pBDTEntryOut| (0+256)))& (0+255)
  8403  09A4  0086               	movwf	6
  8404  09A5  3001               	movlw	1	; select bank3/4
  8405  09A6  0087               	movwf	7
  8406  09A7  0876               	movf	i1USBConfigureEndpoint@handle,w
  8407  09A8  3FC0               	movwi [0]fsr1
  8408  09A9  3000               	movlw	0
  8409  09AA  3FC1               	movwi [1]fsr1
  8410                           
  8411                           ;usb_device.c: 1560: }
  8412  09AB  29B5               	goto	i1l2614
  8413  09AC                     i1l2612:	
  8414                           
  8415                           ;usb_device.c: 1561: else
  8416                           ;usb_device.c: 1562: {
  8417                           ;usb_device.c: 1563: pBDTEntryIn[EPNum] = handle;
  8418  09AC  3575               	lslf	i1USBConfigureEndpoint@EPNum,w
  8419  09AD  3EA7               	addlw	(low (_pBDTEntryIn| (0+256)))& (0+255)
  8420  09AE  0086               	movwf	6
  8421  09AF  3001               	movlw	1	; select bank3/4
  8422  09B0  0087               	movwf	7
  8423  09B1  0876               	movf	i1USBConfigureEndpoint@handle,w
  8424  09B2  3FC0               	movwi [0]fsr1
  8425  09B3  3000               	movlw	0
  8426  09B4  3FC1               	movwi [1]fsr1
  8427  09B5                     i1l2614:	
  8428                           
  8429                           ;usb_device.c: 1564: }
  8430                           ;usb_device.c: 1567: handle->STAT.DTS = 0;
  8431  09B5  0876               	movf	i1USBConfigureEndpoint@handle,w
  8432  09B6  0086               	movwf	6
  8433  09B7  0187               	clrf	7
  8434  09B8  1301               	bcf	1,6
  8435                           
  8436                           ;usb_device.c: 1568: (handle+1)->STAT.DTS = 1;
  8437  09B9  0876               	movf	i1USBConfigureEndpoint@handle,w
  8438  09BA  3E04               	addlw	4
  8439  09BB  0086               	movwf	6
  8440  09BC  0187               	clrf	7
  8441  09BD  1701               	bsf	1,6
  8442  09BE  0008               	return
  8443  09BF                     __end_ofi1_USBConfigureEndpoint:	
  8444                           
  8445                           	psect	text34
  8446  0BB5                     __ptext34:	
  8447 ;; *************** function _USBCheckCDCRequest *****************
  8448 ;; Defined at:
  8449 ;;		line 147 in file "../lib/usb/src/usb_device_cdc.c"
  8450 ;; Parameters:    Size  Location     Type
  8451 ;;		None
  8452 ;; Auto vars:     Size  Location     Type
  8453 ;;		None
  8454 ;; Return value:  Size  Location     Type
  8455 ;;                  1    wreg      void 
  8456 ;; Registers used:
  8457 ;;		wreg, fsr0l, fsr0h, status,2, status,0
  8458 ;; Tracked objects:
  8459 ;;		On entry : 0/0
  8460 ;;		On exit  : 0/0
  8461 ;;		Unchanged: 0/0
  8462 ;; Data sizes:     COMMON   BANK0   BANK1   BANK2   BANK3   BANK4   BANK5   BANK6   BANK7   BANK8   BANK9  BANK10  BANK1
      +1  BANK12
  8463 ;;      Params:         0       0       0       0       0       0       0       0       0       0       0       0       
      +0       0
  8464 ;;      Locals:         0       0       0       0       0       0       0       0       0       0       0       0       
      +0       0
  8465 ;;      Temps:          1       0       0       0       0       0       0       0       0       0       0       0       
      +0       0
  8466 ;;      Totals:         1       0       0       0       0       0       0       0       0       0       0       0       
      +0       0
  8467 ;;Total ram usage:        1 bytes
  8468 ;; Hardware stack levels used:    1
  8469 ;; This function calls:
  8470 ;;		Nothing
  8471 ;; This function is called by:
  8472 ;;		_USER_USB_CALLBACK_EVENT_HANDLER
  8473 ;; This function uses a non-reentrant model
  8474 ;;
  8475                           
  8476                           
  8477                           ;psect for function _USBCheckCDCRequest
  8478  0BB5                     _USBCheckCDCRequest:	
  8479                           
  8480                           ;usb_device_cdc.c: 152: if(SetupPkt.Recipient != (0x01)) return;
  8481                           
  8482                           ;incstack = 0
  8483                           ; Regs used in _USBCheckCDCRequest: [wreg-fsr0h+status,2+status,0]
  8484  0BB5  0020               	movlb	0	; select bank0
  8485  0BB6  0850               	movf	80,w	;volatile
  8486  0BB7  391F               	andlw	31
  8487  0BB8  3A01               	xorlw	1
  8488  0BB9  1D03               	btfss	3,2
  8489  0BBA  0008               	return
  8490                           
  8491                           ;usb_device_cdc.c: 157: if(SetupPkt.RequestType != (0x20>>5)) return;
  8492  0BBB  0E50               	swapf	80,w	;volatile
  8493  0BBC  0C89               	rrf	9,f
  8494  0BBD  3903               	andlw	3
  8495  0BBE  3A01               	xorlw	1
  8496  0BBF  1D03               	btfss	3,2
  8497  0BC0  0008               	return
  8498                           
  8499                           ;usb_device_cdc.c: 163: if((SetupPkt.bIntfID != 0x0)&&
  8500                           ;usb_device_cdc.c: 164: (SetupPkt.bIntfID != 0x01)) return;
  8501  0BC1  0854               	movf	84,w	;volatile
  8502  0BC2  1903               	btfsc	3,2
  8503  0BC3  2C01               	goto	i1l2702
  8504  0BC4  0354               	decf	84,w	;volatile
  8505  0BC5  1D03               	btfss	3,2
  8506  0BC6  0008               	return
  8507  0BC7  2C01               	goto	i1l2702
  8508  0BC8                     i1l2672:	
  8509                           ;usb_device_cdc.c: 167: {
  8510                           ;usb_device_cdc.c: 169: case 0x00:
  8511                           
  8512                           ;usb_device_cdc.c: 166: switch(SetupPkt.bRequest)
  8513                           
  8514                           
  8515                           ;usb_device_cdc.c: 171: inPipes[0].pSrc.bRam = (uint8_t*)&dummy_encapsulated_cmd_respons
      +                          e;
  8516  0BC8  302A               	movlw	low _dummy_encapsulated_cmd_response
  8517  0BC9  0023               	movlb	3	; select bank3
  8518  0BCA  00B3               	movwf	_inPipes^(0+384)	;volatile
  8519  0BCB  3002               	movlw	high _dummy_encapsulated_cmd_response
  8520  0BCC  00B4               	movwf	(_inPipes+1)^(0+384)	;volatile
  8521                           
  8522                           ;usb_device_cdc.c: 172: inPipes[0].wCount.Val = 0x08;
  8523  0BCD  3000               	movlw	0
  8524  0BCE  00B7               	movwf	((_inPipes+1)^(0+384)+3)	;volatile
  8525  0BCF  3008               	movlw	8
  8526  0BD0  00B6               	movwf	(_inPipes^(0+384)+3)	;volatile
  8527                           
  8528                           ;usb_device_cdc.c: 173: inPipes[0].info.bits.ctrl_trf_mem = 0x01;
  8529  0BD1  1435               	bsf	(_inPipes^(0+384)+2),0	;volatile
  8530                           
  8531                           ;usb_device_cdc.c: 174: inPipes[0].info.bits.busy = 1;
  8532  0BD2  17B5               	bsf	(_inPipes^(0+384)+2),7	;volatile
  8533                           
  8534                           ;usb_device_cdc.c: 175: break;
  8535  0BD3  0008               	return
  8536  0BD4                     i1l2680:	
  8537                           ;usb_device_cdc.c: 176: case 0x01:
  8538                           
  8539                           
  8540                           ;usb_device_cdc.c: 178: inPipes[0].pSrc.bRam = (uint8_t*)&dummy_encapsulated_cmd_respons
      +                          e;
  8541  0BD4  302A               	movlw	low _dummy_encapsulated_cmd_response
  8542  0BD5  0023               	movlb	3	; select bank3
  8543  0BD6  00B3               	movwf	_inPipes^(0+384)	;volatile
  8544  0BD7  3002               	movlw	high _dummy_encapsulated_cmd_response
  8545  0BD8  00B4               	movwf	(_inPipes+1)^(0+384)	;volatile
  8546                           
  8547                           ;usb_device_cdc.c: 179: inPipes[0].info.bits.busy = 1;
  8548  0BD9  17B5               	bsf	(_inPipes^(0+384)+2),7	;volatile
  8549                           
  8550                           ;usb_device_cdc.c: 180: break;
  8551  0BDA  0008               	return
  8552  0BDB                     i1l2684:	
  8553                           ;usb_device_cdc.c: 184: case 0x20:
  8554                           
  8555                           
  8556                           ;usb_device_cdc.c: 185: outPipes[0].wCount.Val = SetupPkt.wLength;
  8557  0BDB  0020               	movlb	0	; select bank0
  8558  0BDC  0857               	movf	87,w	;volatile
  8559  0BDD  0023               	movlb	3	; select bank3
  8560  0BDE  00A4               	movwf	((_outPipes+1)^(0+384)+3)	;volatile
  8561  0BDF  0020               	movlb	0	; select bank0
  8562  0BE0  0856               	movf	86,w	;volatile
  8563  0BE1  0023               	movlb	3	; select bank3
  8564  0BE2  00A3               	movwf	(_outPipes^(0+384)+3)	;volatile
  8565                           
  8566                           ;usb_device_cdc.c: 186: outPipes[0].pDst.bRam = (uint8_t*)&line_coding._byte[0];
  8567  0BE3  30E0               	movlw	(low (_line_coding| (0+256)))& (0+255)
  8568  0BE4  00F0               	movwf	??_USBCheckCDCRequest
  8569  0BE5  0870               	movf	??_USBCheckCDCRequest,w
  8570  0BE6  00A0               	movwf	_outPipes^(0+384)	;volatile
  8571                           
  8572                           ;usb_device_cdc.c: 187: outPipes[0].pFunc = (0);
  8573  0BE7  01A5               	clrf	(low ((_outPipes| (0+256)+5)))^(0+128)	;volatile
  8574  0BE8  01A6               	clrf	((low ((_outPipes| (0+256)+5))+1))^(0+128)	;volatile
  8575                           
  8576                           ;usb_device_cdc.c: 188: outPipes[0].info.bits.busy = 1;
  8577  0BE9  17A2               	bsf	(_outPipes^(0+384)+2),7	;volatile
  8578                           
  8579                           ;usb_device_cdc.c: 189: break;
  8580  0BEA  0008               	return
  8581  0BEB                     i1l2690:	
  8582                           ;usb_device_cdc.c: 191: case 0x21:
  8583                           
  8584                           
  8585                           ;usb_device_cdc.c: 192: { inPipes[0].pSrc.bRam = (uint8_t*)&line_coding; inPipes[0].wCou
      +                          nt.Val = 0x07; inPipes[0].info.Val = 0x40 | 0x80 | 0x01; };
  8586  0BEB  30E0               	movlw	low _line_coding
  8587  0BEC  0023               	movlb	3	; select bank3
  8588  0BED  00B3               	movwf	_inPipes^(0+384)	;volatile
  8589  0BEE  3001               	movlw	high _line_coding
  8590  0BEF  00B4               	movwf	(_inPipes+1)^(0+384)	;volatile
  8591  0BF0  3000               	movlw	0
  8592  0BF1  00B7               	movwf	((_inPipes+1)^(0+384)+3)	;volatile
  8593  0BF2  3007               	movlw	7
  8594  0BF3  00B6               	movwf	(_inPipes^(0+384)+3)	;volatile
  8595  0BF4  30C1               	movlw	193
  8596  0BF5  00F0               	movwf	??_USBCheckCDCRequest
  8597  0BF6  0870               	movf	??_USBCheckCDCRequest,w
  8598  0BF7  00B5               	movwf	(_inPipes^(0+384)+2)	;volatile
  8599                           
  8600                           ;usb_device_cdc.c: 196: break;
  8601  0BF8  0008               	return
  8602  0BF9                     i1l2696:	
  8603                           ;usb_device_cdc.c: 198: case 0x22:
  8604                           
  8605                           
  8606                           ;usb_device_cdc.c: 199: control_signal_bitmap._byte = (uint8_t)SetupPkt.wValue;
  8607  0BF9  0020               	movlb	0	; select bank0
  8608  0BFA  0852               	movf	82,w	;volatile
  8609  0BFB  00F0               	movwf	??_USBCheckCDCRequest
  8610  0BFC  0870               	movf	??_USBCheckCDCRequest,w
  8611  0BFD  0023               	movlb	3	; select bank3
  8612  0BFE  00DC               	movwf	_control_signal_bitmap^(0+384)
  8613                           
  8614                           ;usb_device_cdc.c: 231: inPipes[0].info.bits.busy = 1;
  8615  0BFF  17B5               	bsf	(_inPipes^(0+384)+2),7	;volatile
  8616                           
  8617                           ;usb_device_cdc.c: 258: }
  8618                           
  8619                           ;usb_device_cdc.c: 257: break;
  8620                           
  8621                           ;usb_device_cdc.c: 256: default:
  8622                           
  8623                           ;usb_device_cdc.c: 232: break;
  8624  0C00  0008               	return
  8625  0C01                     i1l2702:	
  8626  0C01  0020               	movlb	0	; select bank0
  8627  0C02  0851               	movf	81,w	;volatile
  8628                           
  8629                           ; Switch size 1, requested type "space"
  8630                           ; Number of cases is 5, Range of values is 0 to 34
  8631                           ; switch strategies available:
  8632                           ; Name         Instructions Cycles
  8633                           ; simple_byte           16     9 (average)
  8634                           ; direct_byte           76     6 (fixed)
  8635                           ; jumptable            260     6 (fixed)
  8636                           ;	Chosen strategy is simple_byte
  8637  0C03  3A00               	xorlw	0	; case 0
  8638  0C04  1903               	skipnz
  8639  0C05  2BC8               	goto	i1l2672
  8640  0C06  3A01               	xorlw	1	; case 1
  8641  0C07  1903               	skipnz
  8642  0C08  2BD4               	goto	i1l2680
  8643  0C09  3A21               	xorlw	33	; case 32
  8644  0C0A  1903               	skipnz
  8645  0C0B  2BDB               	goto	i1l2684
  8646  0C0C  3A01               	xorlw	1	; case 33
  8647  0C0D  1903               	skipnz
  8648  0C0E  2BEB               	goto	i1l2690
  8649  0C0F  3A03               	xorlw	3	; case 34
  8650  0C10  1903               	skipnz
  8651  0C11  2BF9               	goto	i1l2696
  8652  0C12  2C13               	goto	i1l479
  8653  0C13                     i1l479:	
  8654  0C13  0008               	return
  8655  0C14                     __end_of_USBCheckCDCRequest:	
  8656                           
  8657                           	psect	text35
  8658  08D1                     __ptext35:	
  8659 ;; *************** function _USBCtrlTrfOutHandler *****************
  8660 ;; Defined at:
  8661 ;;		line 2538 in file "../lib/usb/src/usb_device.c"
  8662 ;; Parameters:    Size  Location     Type
  8663 ;;		None
  8664 ;; Auto vars:     Size  Location     Type
  8665 ;;		None
  8666 ;; Return value:  Size  Location     Type
  8667 ;;                  1    wreg      void 
  8668 ;; Registers used:
  8669 ;;		wreg, fsr1l, fsr1h, status,2, status,0, pclath, cstack
  8670 ;; Tracked objects:
  8671 ;;		On entry : 0/0
  8672 ;;		On exit  : 0/0
  8673 ;;		Unchanged: 0/0
  8674 ;; Data sizes:     COMMON   BANK0   BANK1   BANK2   BANK3   BANK4   BANK5   BANK6   BANK7   BANK8   BANK9  BANK10  BANK1
      +1  BANK12
  8675 ;;      Params:         0       0       0       0       0       0       0       0       0       0       0       0       
      +0       0
  8676 ;;      Locals:         0       0       0       0       0       0       0       0       0       0       0       0       
      +0       0
  8677 ;;      Temps:          2       0       0       0       0       0       0       0       0       0       0       0       
      +0       0
  8678 ;;      Totals:         2       0       0       0       0       0       0       0       0       0       0       0       
      +0       0
  8679 ;;Total ram usage:        2 bytes
  8680 ;; Hardware stack levels used:    1
  8681 ;; Hardware stack levels required when called:    2
  8682 ;; This function calls:
  8683 ;;		_USBCtrlTrfRxService
  8684 ;; This function is called by:
  8685 ;;		_USBCtrlEPService
  8686 ;; This function uses a non-reentrant model
  8687 ;;
  8688                           
  8689                           
  8690                           ;psect for function _USBCtrlTrfOutHandler
  8691  08D1                     _USBCtrlTrfOutHandler:	
  8692                           
  8693                           ;usb_device.c: 2540: if(controlTransferState == 2)
  8694                           
  8695                           ;incstack = 0
  8696                           ; Regs used in _USBCtrlTrfOutHandler: [wreg+fsr1l+fsr1h+status,2+status,0+pclath+cstack]
  8697  08D1  3002               	movlw	2
  8698  08D2  0021               	movlb	1	; select bank1
  8699  08D3  0663               	xorwf	_controlTransferState^(0+128),w	;volatile
  8700  08D4  1D03               	btfss	3,2
  8701  08D5  28D9               	goto	i1l3242
  8702                           
  8703                           ;usb_device.c: 2541: {
  8704                           ;usb_device.c: 2542: USBCtrlTrfRxService();
  8705  08D6  3186  26F9         	fcall	_USBCtrlTrfRxService
  8706                           
  8707                           ;usb_device.c: 2543: }
  8708  08D8  0008               	return
  8709  08D9                     i1l3242:	
  8710                           
  8711                           ;usb_device.c: 2544: else
  8712                           ;usb_device.c: 2545: {
  8713                           ;usb_device.c: 2548: controlTransferState = 0;
  8714  08D9  0021               	movlb	1	; select bank1
  8715  08DA  01E3               	clrf	_controlTransferState^(0+128)	;volatile
  8716                           
  8717                           ;usb_device.c: 2555: if(BothEP0OutUOWNsSet == 0)
  8718  08DB  0023               	movlb	3	; select bank3
  8719  08DC  084E               	movf	_BothEP0OutUOWNsSet^(0+384),w	;volatile
  8720  08DD  1D03               	btfss	3,2
  8721  08DE  2905               	goto	i1l3254
  8722                           
  8723                           ;usb_device.c: 2556: {
  8724                           ;usb_device.c: 2557: pBDTEntryEP0OutNext->CNT = 8;
  8725  08DF  0021               	movlb	1	; select bank1
  8726  08E0  0860               	movf	_pBDTEntryEP0OutNext^(0+128),w
  8727  08E1  3E01               	addlw	1
  8728  08E2  00F6               	movwf	??_USBCtrlTrfOutHandler
  8729  08E3  3000               	movlw	0
  8730  08E4  3D61               	addwfc	(_pBDTEntryEP0OutNext+1)^(0+128),w
  8731  08E5  00F7               	movwf	??_USBCtrlTrfOutHandler+1
  8732  08E6  0876               	movf	??_USBCtrlTrfOutHandler,w
  8733  08E7  0086               	movwf	6
  8734  08E8  0877               	movf	??_USBCtrlTrfOutHandler+1,w
  8735  08E9  0087               	movwf	7
  8736  08EA  3008               	movlw	8
  8737  08EB  0081               	movwf	1
  8738                           
  8739                           ;usb_device.c: 2558: pBDTEntryEP0OutNext->ADR = (((uint16_t)(&SetupPkt)) & 0x7FFF);
  8740  08EC  3050               	movlw	80
  8741  08ED  00F6               	movwf	??_USBCtrlTrfOutHandler
  8742  08EE  3000               	movlw	0
  8743  08EF  00F7               	movwf	??_USBCtrlTrfOutHandler+1
  8744  08F0  0860               	movf	_pBDTEntryEP0OutNext^(0+128),w
  8745  08F1  0086               	movwf	6
  8746  08F2  0861               	movf	(_pBDTEntryEP0OutNext+1)^(0+128),w
  8747  08F3  0087               	movwf	7
  8748  08F4  3142               	addfsr 1,2
  8749  08F5  0876               	movf	??_USBCtrlTrfOutHandler,w
  8750  08F6  3FC0               	movwi [0]fsr1
  8751  08F7  0877               	movf	??_USBCtrlTrfOutHandler+1,w
  8752  08F8  3FC1               	movwi [1]fsr1
  8753                           
  8754                           ;usb_device.c: 2559: pBDTEntryEP0OutNext->STAT.Val = 0x00|(0x08 & 0x08)|0x04;
  8755  08F9  0860               	movf	_pBDTEntryEP0OutNext^(0+128),w
  8756  08FA  0086               	movwf	6
  8757  08FB  0861               	movf	(_pBDTEntryEP0OutNext+1)^(0+128),w
  8758  08FC  0087               	movwf	7
  8759  08FD  300C               	movlw	12
  8760  08FE  0081               	movwf	1
  8761                           
  8762                           ;usb_device.c: 2560: pBDTEntryEP0OutNext->STAT.Val |= 0x80;
  8763  08FF  0860               	movf	_pBDTEntryEP0OutNext^(0+128),w
  8764  0900  0086               	movwf	6
  8765  0901  0861               	movf	(_pBDTEntryEP0OutNext+1)^(0+128),w
  8766  0902  0087               	movwf	7
  8767  0903  1781               	bsf	1,7
  8768                           
  8769                           ;usb_device.c: 2561: }
  8770  0904  0008               	return
  8771  0905                     i1l3254:	
  8772                           
  8773                           ;usb_device.c: 2562: else
  8774                           ;usb_device.c: 2563: {
  8775                           ;usb_device.c: 2564: BothEP0OutUOWNsSet = 0;
  8776  0905  0023               	movlb	3	; select bank3
  8777  0906  01CE               	clrf	_BothEP0OutUOWNsSet^(0+384)	;volatile
  8778  0907  0008               	return
  8779  0908                     __end_of_USBCtrlTrfOutHandler:	
  8780                           
  8781                           	psect	text36
  8782  06F9                     __ptext36:	
  8783 ;; *************** function _USBCtrlTrfRxService *****************
  8784 ;; Defined at:
  8785 ;;		line 1852 in file "../lib/usb/src/usb_device.c"
  8786 ;; Parameters:    Size  Location     Type
  8787 ;;		None
  8788 ;; Auto vars:     Size  Location     Type
  8789 ;;  byteToRead      1    5[COMMON] unsigned char 
  8790 ;;  i               1    4[COMMON] unsigned char 
  8791 ;; Return value:  Size  Location     Type
  8792 ;;                  1    wreg      void 
  8793 ;; Registers used:
  8794 ;;		wreg, fsr1l, fsr1h, status,2, status,0, pclath, cstack
  8795 ;; Tracked objects:
  8796 ;;		On entry : 0/0
  8797 ;;		On exit  : 0/0
  8798 ;;		Unchanged: 0/0
  8799 ;; Data sizes:     COMMON   BANK0   BANK1   BANK2   BANK3   BANK4   BANK5   BANK6   BANK7   BANK8   BANK9  BANK10  BANK1
      +1  BANK12
  8800 ;;      Params:         0       0       0       0       0       0       0       0       0       0       0       0       
      +0       0
  8801 ;;      Locals:         2       0       0       0       0       0       0       0       0       0       0       0       
      +0       0
  8802 ;;      Temps:          2       0       0       0       0       0       0       0       0       0       0       0       
      +0       0
  8803 ;;      Totals:         4       0       0       0       0       0       0       0       0       0       0       0       
      +0       0
  8804 ;;Total ram usage:        4 bytes
  8805 ;; Hardware stack levels used:    1
  8806 ;; Hardware stack levels required when called:    1
  8807 ;; This function calls:
  8808 ;;		_USBCtrlEPAllowStatusStage
  8809 ;; This function is called by:
  8810 ;;		_USBCtrlTrfOutHandler
  8811 ;; This function uses a non-reentrant model
  8812 ;;
  8813                           
  8814                           
  8815                           ;psect for function _USBCtrlTrfRxService
  8816  06F9                     _USBCtrlTrfRxService:	
  8817                           
  8818                           ;usb_device.c: 1854: uint8_t byteToRead;
  8819                           ;usb_device.c: 1855: uint8_t i;
  8820                           ;usb_device.c: 1859: byteToRead = pBDTEntryEP0OutCurrent->CNT;
  8821                           
  8822                           ;incstack = 0
  8823                           ; Regs used in _USBCtrlTrfRxService: [wreg+fsr1l+fsr1h+status,2+status,0+pclath+cstack]
  8824  06F9  0021               	movlb	1	; select bank1
  8825  06FA  0864               	movf	_pBDTEntryEP0OutCurrent^(0+128),w
  8826  06FB  0086               	movwf	6
  8827  06FC  0187               	clrf	7
  8828  06FD  3F41               	moviw [1]fsr1
  8829  06FE  00F5               	movwf	USBCtrlTrfRxService@byteToRead
  8830                           
  8831                           ;usb_device.c: 1865: if(byteToRead > outPipes[0].wCount.Val)
  8832  06FF  0875               	movf	USBCtrlTrfRxService@byteToRead,w
  8833  0700  00F2               	movwf	??_USBCtrlTrfRxService
  8834  0701  01F3               	clrf	??_USBCtrlTrfRxService+1
  8835  0702  0873               	movf	??_USBCtrlTrfRxService+1,w
  8836  0703  0023               	movlb	3	; select bank3
  8837  0704  0224               	subwf	((_outPipes+1)^(0+384)+3),w	;volatile
  8838  0705  1D03               	skipz
  8839  0706  2F09               	goto	u247_25
  8840  0707  0872               	movf	??_USBCtrlTrfRxService,w
  8841  0708  0223               	subwf	(_outPipes^(0+384)+3),w	;volatile
  8842  0709                     u247_25:	
  8843  0709  1803               	skipnc
  8844  070A  2F0F               	goto	i1l286
  8845                           
  8846                           ;usb_device.c: 1866: {
  8847                           ;usb_device.c: 1867: byteToRead = outPipes[0].wCount.Val;
  8848  070B  0823               	movf	(_outPipes^(0+384)+3),w	;volatile
  8849  070C  00F2               	movwf	??_USBCtrlTrfRxService
  8850  070D  0872               	movf	??_USBCtrlTrfRxService,w
  8851  070E  00F5               	movwf	USBCtrlTrfRxService@byteToRead
  8852  070F                     i1l286:	
  8853                           
  8854                           ;usb_device.c: 1868: }
  8855                           ;usb_device.c: 1870: outPipes[0].wCount.Val -= byteToRead;
  8856  070F  0875               	movf	USBCtrlTrfRxService@byteToRead,w
  8857  0710  00F2               	movwf	??_USBCtrlTrfRxService
  8858  0711  01F3               	clrf	??_USBCtrlTrfRxService+1
  8859  0712  0872               	movf	??_USBCtrlTrfRxService,w
  8860  0713  02A3               	subwf	(_outPipes^(0+384)+3),f	;volatile
  8861  0714  0873               	movf	??_USBCtrlTrfRxService+1,w
  8862  0715  3BA4               	subwfb	((_outPipes+1)^(0+384)+3),f	;volatile
  8863                           
  8864                           ;usb_device.c: 1874: for(i=0;i<byteToRead;i++)
  8865  0716  01F4               	clrf	USBCtrlTrfRxService@i
  8866  0717                     i1l3126:	
  8867  0717  0875               	movf	USBCtrlTrfRxService@byteToRead,w
  8868  0718  0274               	subwf	USBCtrlTrfRxService@i,w
  8869  0719  1803               	btfsc	3,0
  8870  071A  2F30               	goto	i1l3128
  8871                           
  8872                           ;usb_device.c: 1875: {
  8873                           ;usb_device.c: 1876: *outPipes[0].pDst.bRam++ = CtrlTrfData[i];
  8874  071B  0874               	movf	USBCtrlTrfRxService@i,w
  8875  071C  3E58               	addlw	88
  8876  071D  0086               	movwf	6
  8877  071E  0187               	clrf	7
  8878  071F  0801               	movf	1,w
  8879  0720  00F2               	movwf	??_USBCtrlTrfRxService
  8880  0721  0820               	movf	_outPipes^(0+384),w	;volatile
  8881  0722  0086               	movwf	6
  8882  0723  3001               	movlw	1	; select bank2/3
  8883  0724  0087               	movwf	7
  8884  0725  0872               	movf	??_USBCtrlTrfRxService,w
  8885  0726  0081               	movwf	1
  8886  0727  3001               	movlw	1
  8887  0728  00F2               	movwf	??_USBCtrlTrfRxService
  8888  0729  0872               	movf	??_USBCtrlTrfRxService,w
  8889  072A  07A0               	addwf	_outPipes^(0+384),f	;volatile
  8890  072B  3001               	movlw	1
  8891  072C  00F2               	movwf	??_USBCtrlTrfRxService
  8892  072D  0872               	movf	??_USBCtrlTrfRxService,w
  8893  072E  07F4               	addwf	USBCtrlTrfRxService@i,f
  8894  072F  2F17               	goto	i1l3126
  8895  0730                     i1l3128:	
  8896                           
  8897                           ;usb_device.c: 1877: }
  8898                           ;usb_device.c: 1881: if(outPipes[0].wCount.Val > 0)
  8899  0730  0823               	movf	(_outPipes^(0+384)+3),w	;volatile
  8900  0731  0424               	iorwf	((_outPipes+1)^(0+384)+3),w	;volatile
  8901  0732  1903               	btfsc	3,2
  8902  0733  2F6B               	goto	i1l3140
  8903                           
  8904                           ;usb_device.c: 1882: {
  8905                           ;usb_device.c: 1883: pBDTEntryEP0OutNext->CNT = 8;
  8906  0734  0021               	movlb	1	; select bank1
  8907  0735  0860               	movf	_pBDTEntryEP0OutNext^(0+128),w
  8908  0736  3E01               	addlw	1
  8909  0737  00F2               	movwf	??_USBCtrlTrfRxService
  8910  0738  3000               	movlw	0
  8911  0739  3D61               	addwfc	(_pBDTEntryEP0OutNext+1)^(0+128),w
  8912  073A  00F3               	movwf	??_USBCtrlTrfRxService+1
  8913  073B  0872               	movf	??_USBCtrlTrfRxService,w
  8914  073C  0086               	movwf	6
  8915  073D  0873               	movf	??_USBCtrlTrfRxService+1,w
  8916  073E  0087               	movwf	7
  8917  073F  3008               	movlw	8
  8918  0740  0081               	movwf	1
  8919                           
  8920                           ;usb_device.c: 1884: pBDTEntryEP0OutNext->ADR = (((uint16_t)(&CtrlTrfData)) & 0x7FFF);
  8921  0741  3058               	movlw	88
  8922  0742  00F2               	movwf	??_USBCtrlTrfRxService
  8923  0743  3000               	movlw	0
  8924  0744  00F3               	movwf	??_USBCtrlTrfRxService+1
  8925  0745  0860               	movf	_pBDTEntryEP0OutNext^(0+128),w
  8926  0746  0086               	movwf	6
  8927  0747  0861               	movf	(_pBDTEntryEP0OutNext+1)^(0+128),w
  8928  0748  0087               	movwf	7
  8929  0749  3142               	addfsr 1,2
  8930  074A  0872               	movf	??_USBCtrlTrfRxService,w
  8931  074B  3FC0               	movwi [0]fsr1
  8932  074C  0873               	movf	??_USBCtrlTrfRxService+1,w
  8933  074D  3FC1               	movwi [1]fsr1
  8934                           
  8935                           ;usb_device.c: 1885: if(pBDTEntryEP0OutCurrent->STAT.DTS == 0)
  8936  074E  0864               	movf	_pBDTEntryEP0OutCurrent^(0+128),w
  8937  074F  0086               	movwf	6
  8938  0750  0187               	clrf	7
  8939  0751  1B01               	btfsc	1,6
  8940  0752  2F5F               	goto	i1l3138
  8941                           
  8942                           ;usb_device.c: 1886: {
  8943                           ;usb_device.c: 1887: pBDTEntryEP0OutNext->STAT.Val = 0x40|(0x08 & 0x08);
  8944  0753  0860               	movf	_pBDTEntryEP0OutNext^(0+128),w
  8945  0754  0086               	movwf	6
  8946  0755  0861               	movf	(_pBDTEntryEP0OutNext+1)^(0+128),w
  8947  0756  0087               	movwf	7
  8948  0757  3048               	movlw	72
  8949  0758  0081               	movwf	1
  8950                           
  8951                           ;usb_device.c: 1888: pBDTEntryEP0OutNext->STAT.Val |= 0x80;
  8952  0759  0860               	movf	_pBDTEntryEP0OutNext^(0+128),w
  8953  075A  0086               	movwf	6
  8954  075B  0861               	movf	(_pBDTEntryEP0OutNext+1)^(0+128),w
  8955  075C  0087               	movwf	7
  8956  075D  1781               	bsf	1,7
  8957                           
  8958                           ;usb_device.c: 1889: }
  8959  075E  0008               	return
  8960  075F                     i1l3138:	
  8961                           
  8962                           ;usb_device.c: 1890: else
  8963                           ;usb_device.c: 1891: {
  8964                           ;usb_device.c: 1892: pBDTEntryEP0OutNext->STAT.Val = 0x00|(0x08 & 0x08);
  8965  075F  0860               	movf	_pBDTEntryEP0OutNext^(0+128),w
  8966  0760  0086               	movwf	6
  8967  0761  0861               	movf	(_pBDTEntryEP0OutNext+1)^(0+128),w
  8968  0762  0087               	movwf	7
  8969  0763  3008               	movlw	8
  8970  0764  0081               	movwf	1
  8971                           
  8972                           ;usb_device.c: 1893: pBDTEntryEP0OutNext->STAT.Val |= 0x80;
  8973  0765  0860               	movf	_pBDTEntryEP0OutNext^(0+128),w
  8974  0766  0086               	movwf	6
  8975  0767  0861               	movf	(_pBDTEntryEP0OutNext+1)^(0+128),w
  8976  0768  0087               	movwf	7
  8977  0769  1781               	bsf	1,7
  8978                           
  8979                           ;usb_device.c: 1894: }
  8980                           ;usb_device.c: 1895: }
  8981  076A  0008               	return
  8982  076B                     i1l3140:	
  8983                           
  8984                           ;usb_device.c: 1896: else
  8985                           ;usb_device.c: 1897: {
  8986                           ;usb_device.c: 1901: pBDTEntryEP0OutNext->CNT = 8;
  8987  076B  0021               	movlb	1	; select bank1
  8988  076C  0860               	movf	_pBDTEntryEP0OutNext^(0+128),w
  8989  076D  3E01               	addlw	1
  8990  076E  00F2               	movwf	??_USBCtrlTrfRxService
  8991  076F  3000               	movlw	0
  8992  0770  3D61               	addwfc	(_pBDTEntryEP0OutNext+1)^(0+128),w
  8993  0771  00F3               	movwf	??_USBCtrlTrfRxService+1
  8994  0772  0872               	movf	??_USBCtrlTrfRxService,w
  8995  0773  0086               	movwf	6
  8996  0774  0873               	movf	??_USBCtrlTrfRxService+1,w
  8997  0775  0087               	movwf	7
  8998  0776  3008               	movlw	8
  8999  0777  0081               	movwf	1
  9000                           
  9001                           ;usb_device.c: 1902: pBDTEntryEP0OutNext->ADR = (((uint16_t)(&SetupPkt)) & 0x7FFF);
  9002  0778  3050               	movlw	80
  9003  0779  00F2               	movwf	??_USBCtrlTrfRxService
  9004  077A  3000               	movlw	0
  9005  077B  00F3               	movwf	??_USBCtrlTrfRxService+1
  9006  077C  0860               	movf	_pBDTEntryEP0OutNext^(0+128),w
  9007  077D  0086               	movwf	6
  9008  077E  0861               	movf	(_pBDTEntryEP0OutNext+1)^(0+128),w
  9009  077F  0087               	movwf	7
  9010  0780  3142               	addfsr 1,2
  9011  0781  0872               	movf	??_USBCtrlTrfRxService,w
  9012  0782  3FC0               	movwi [0]fsr1
  9013  0783  0873               	movf	??_USBCtrlTrfRxService+1,w
  9014  0784  3FC1               	movwi [1]fsr1
  9015                           
  9016                           ;usb_device.c: 1906: pBDTEntryEP0OutNext->STAT.Val = 0x04;
  9017  0785  0860               	movf	_pBDTEntryEP0OutNext^(0+128),w
  9018  0786  0086               	movwf	6
  9019  0787  0861               	movf	(_pBDTEntryEP0OutNext+1)^(0+128),w
  9020  0788  0087               	movwf	7
  9021  0789  3004               	movlw	4
  9022  078A  0081               	movwf	1
  9023                           
  9024                           ;usb_device.c: 1907: pBDTEntryEP0OutNext->STAT.Val |= 0x80;
  9025  078B  0860               	movf	_pBDTEntryEP0OutNext^(0+128),w
  9026  078C  0086               	movwf	6
  9027  078D  0861               	movf	(_pBDTEntryEP0OutNext+1)^(0+128),w
  9028  078E  0087               	movwf	7
  9029  078F  1781               	bsf	1,7
  9030                           
  9031                           ;usb_device.c: 1915: {
  9032                           ;usb_device.c: 1921: outPipes[0].pFunc();
  9033  0790  0023               	movlb	3	; select bank3
  9034  0791  0825               	movf	(low ((_outPipes| (0+256)+5)))^(0+128),w	;volatile
  9035  0792  0826               	movf	((low ((_outPipes| (0+256)+5))+1))^(0+128),w	;volatile
  9036                           
  9037                           ;usb_device.c: 1926: }
  9038                           ;usb_device.c: 1927: outPipes[0].info.bits.busy = 0;
  9039  0793  13A2               	bcf	(_outPipes^(0+384)+2),7	;volatile
  9040                           
  9041                           ;usb_device.c: 1941: if(USBDeferStatusStagePacket == 0)
  9042  0794  0853               	movf	_USBDeferStatusStagePacket^(0+384),w	;volatile
  9043  0795  1D03               	btfss	3,2
  9044  0796  0008               	return
  9045                           
  9046                           ;usb_device.c: 1942: {
  9047                           ;usb_device.c: 1943: USBCtrlEPAllowStatusStage();
  9048  0797  318C  24E8         	fcall	_USBCtrlEPAllowStatusStage
  9049  0799  0008               	return
  9050  079A                     __end_of_USBCtrlTrfRxService:	
  9051                           
  9052                           	psect	text37
  9053  0CE8                     __ptext37:	
  9054 ;; *************** function _USBCtrlEPAllowStatusStage *****************
  9055 ;; Defined at:
  9056 ;;		line 1416 in file "../lib/usb/src/usb_device.c"
  9057 ;; Parameters:    Size  Location     Type
  9058 ;;		None
  9059 ;; Auto vars:     Size  Location     Type
  9060 ;;		None
  9061 ;; Return value:  Size  Location     Type
  9062 ;;                  1    wreg      void 
  9063 ;; Registers used:
  9064 ;;		wreg, fsr1l, fsr1h, status,2, status,0
  9065 ;; Tracked objects:
  9066 ;;		On entry : 0/0
  9067 ;;		On exit  : 0/0
  9068 ;;		Unchanged: 0/0
  9069 ;; Data sizes:     COMMON   BANK0   BANK1   BANK2   BANK3   BANK4   BANK5   BANK6   BANK7   BANK8   BANK9  BANK10  BANK1
      +1  BANK12
  9070 ;;      Params:         0       0       0       0       0       0       0       0       0       0       0       0       
      +0       0
  9071 ;;      Locals:         0       0       0       0       0       0       0       0       0       0       0       0       
      +0       0
  9072 ;;      Temps:          2       0       0       0       0       0       0       0       0       0       0       0       
      +0       0
  9073 ;;      Totals:         2       0       0       0       0       0       0       0       0       0       0       0       
      +0       0
  9074 ;;Total ram usage:        2 bytes
  9075 ;; Hardware stack levels used:    1
  9076 ;; This function calls:
  9077 ;;		Nothing
  9078 ;; This function is called by:
  9079 ;;		_USBDeviceTasks
  9080 ;;		_USBCtrlEPServiceComplete
  9081 ;;		_USBCtrlTrfRxService
  9082 ;; This function uses a non-reentrant model
  9083 ;;
  9084                           
  9085                           
  9086                           ;psect for function _USBCtrlEPAllowStatusStage
  9087  0CE8                     _USBCtrlEPAllowStatusStage:	
  9088                           
  9089                           ;usb_device.c: 1423: if(USBStatusStageEnabledFlag1 == 0)
  9090                           
  9091                           ;incstack = 0
  9092                           ; Regs used in _USBCtrlEPAllowStatusStage: [wreg+fsr1l+fsr1h+status,2+status,0]
  9093  0CE8  0023               	movlb	3	; select bank3
  9094  0CE9  0854               	movf	_USBStatusStageEnabledFlag1^(0+384),w	;volatile
  9095  0CEA  1D03               	btfss	3,2
  9096  0CEB  0008               	return
  9097                           
  9098                           ;usb_device.c: 1424: {
  9099                           ;usb_device.c: 1425: USBStatusStageEnabledFlag1 = 1;
  9100  0CEC  3001               	movlw	1
  9101  0CED  00F0               	movwf	??_USBCtrlEPAllowStatusStage
  9102  0CEE  0870               	movf	??_USBCtrlEPAllowStatusStage,w
  9103  0CEF  00D4               	movwf	_USBStatusStageEnabledFlag1^(0+384)	;volatile
  9104                           
  9105                           ;usb_device.c: 1426: if(USBStatusStageEnabledFlag2 == 0)
  9106  0CF0  0855               	movf	_USBStatusStageEnabledFlag2^(0+384),w	;volatile
  9107  0CF1  1D03               	btfss	3,2
  9108  0CF2  0008               	return
  9109                           
  9110                           ;usb_device.c: 1427: {
  9111                           ;usb_device.c: 1428: USBStatusStageEnabledFlag2 = 1;
  9112  0CF3  3001               	movlw	1
  9113  0CF4  00F0               	movwf	??_USBCtrlEPAllowStatusStage
  9114  0CF5  0870               	movf	??_USBCtrlEPAllowStatusStage,w
  9115  0CF6  00D5               	movwf	_USBStatusStageEnabledFlag2^(0+384)	;volatile
  9116                           
  9117                           ;usb_device.c: 1432: if(controlTransferState == 2)
  9118  0CF7  3002               	movlw	2
  9119  0CF8  0021               	movlb	1	; select bank1
  9120  0CF9  0663               	xorwf	_controlTransferState^(0+128),w	;volatile
  9121  0CFA  1D03               	btfss	3,2
  9122  0CFB  2D0F               	goto	i1l2816
  9123                           
  9124                           ;usb_device.c: 1433: {
  9125                           ;usb_device.c: 1434: pBDTEntryIn[0]->CNT = 0;
  9126  0CFC  0023               	movlb	3	; select bank3
  9127  0CFD  0827               	movf	_pBDTEntryIn^(0+384),w
  9128  0CFE  0086               	movwf	6
  9129  0CFF  0828               	movf	(_pBDTEntryIn+1)^(0+384),w
  9130  0D00  0087               	movwf	7
  9131  0D01  3141               	addfsr 1,1
  9132  0D02  0181               	clrf	1
  9133                           
  9134                           ;usb_device.c: 1435: pBDTEntryIn[0]->STAT.Val = 0x40|(0x08 & 0x08);
  9135  0D03  0827               	movf	_pBDTEntryIn^(0+384),w
  9136  0D04  0086               	movwf	6
  9137  0D05  0828               	movf	(_pBDTEntryIn+1)^(0+384),w
  9138  0D06  0087               	movwf	7
  9139  0D07  3048               	movlw	72
  9140  0D08  0081               	movwf	1
  9141                           
  9142                           ;usb_device.c: 1436: pBDTEntryIn[0]->STAT.Val |= 0x80;
  9143  0D09  0827               	movf	_pBDTEntryIn^(0+384),w
  9144  0D0A  0086               	movwf	6
  9145  0D0B  0828               	movf	(_pBDTEntryIn+1)^(0+384),w
  9146  0D0C  0087               	movwf	7
  9147  0D0D  1781               	bsf	1,7
  9148                           
  9149                           ;usb_device.c: 1437: }
  9150  0D0E  0008               	return
  9151  0D0F                     i1l2816:	
  9152                           
  9153                           ;usb_device.c: 1438: else if(controlTransferState == 1)
  9154  0D0F  0021               	movlb	1	; select bank1
  9155  0D10  0363               	decf	_controlTransferState^(0+128),w	;volatile
  9156  0D11  1D03               	btfss	3,2
  9157  0D12  0008               	return
  9158                           
  9159                           ;usb_device.c: 1439: {
  9160                           ;usb_device.c: 1440: BothEP0OutUOWNsSet = 0;
  9161  0D13  0023               	movlb	3	; select bank3
  9162  0D14  01CE               	clrf	_BothEP0OutUOWNsSet^(0+384)	;volatile
  9163                           
  9164                           ;usb_device.c: 1445: pBDTEntryEP0OutCurrent->CNT = 8;
  9165  0D15  3008               	movlw	8
  9166  0D16  00F0               	movwf	??_USBCtrlEPAllowStatusStage
  9167  0D17  0021               	movlb	1	; select bank1
  9168  0D18  0A64               	incf	_pBDTEntryEP0OutCurrent^(0+128),w
  9169  0D19  0086               	movwf	6
  9170  0D1A  0187               	clrf	7
  9171  0D1B  0870               	movf	??_USBCtrlEPAllowStatusStage,w
  9172  0D1C  0081               	movwf	1
  9173                           
  9174                           ;usb_device.c: 1446: pBDTEntryEP0OutCurrent->ADR = (((uint16_t)(&SetupPkt)) & 0x7FFF);
  9175  0D1D  3050               	movlw	80
  9176  0D1E  00F0               	movwf	??_USBCtrlEPAllowStatusStage
  9177  0D1F  3000               	movlw	0
  9178  0D20  00F1               	movwf	??_USBCtrlEPAllowStatusStage+1
  9179  0D21  0864               	movf	_pBDTEntryEP0OutCurrent^(0+128),w
  9180  0D22  3E02               	addlw	2
  9181  0D23  0086               	movwf	6
  9182  0D24  0187               	clrf	7
  9183  0D25  0870               	movf	??_USBCtrlEPAllowStatusStage,w
  9184  0D26  3FC0               	movwi [0]fsr1
  9185  0D27  0871               	movf	??_USBCtrlEPAllowStatusStage+1,w
  9186  0D28  3FC1               	movwi [1]fsr1
  9187                           
  9188                           ;usb_device.c: 1447: pBDTEntryEP0OutCurrent->STAT.Val = 0x04;
  9189  0D29  3004               	movlw	4
  9190  0D2A  00F0               	movwf	??_USBCtrlEPAllowStatusStage
  9191  0D2B  0864               	movf	_pBDTEntryEP0OutCurrent^(0+128),w
  9192  0D2C  0086               	movwf	6
  9193  0D2D  0187               	clrf	7
  9194  0D2E  0870               	movf	??_USBCtrlEPAllowStatusStage,w
  9195  0D2F  0081               	movwf	1
  9196                           
  9197                           ;usb_device.c: 1448: pBDTEntryEP0OutCurrent->STAT.Val |= 0x80;
  9198  0D30  0864               	movf	_pBDTEntryEP0OutCurrent^(0+128),w
  9199  0D31  0086               	movwf	6
  9200  0D32  0187               	clrf	7
  9201  0D33  1781               	bsf	1,7
  9202                           
  9203                           ;usb_device.c: 1449: BothEP0OutUOWNsSet = 1;
  9204  0D34  3001               	movlw	1
  9205  0D35  00F0               	movwf	??_USBCtrlEPAllowStatusStage
  9206  0D36  0870               	movf	??_USBCtrlEPAllowStatusStage,w
  9207  0D37  0023               	movlb	3	; select bank3
  9208  0D38  00CE               	movwf	_BothEP0OutUOWNsSet^(0+384)	;volatile
  9209                           
  9210                           ;usb_device.c: 1453: pBDTEntryEP0OutNext->CNT = 8;
  9211  0D39  0021               	movlb	1	; select bank1
  9212  0D3A  0860               	movf	_pBDTEntryEP0OutNext^(0+128),w
  9213  0D3B  3E01               	addlw	1
  9214  0D3C  00F0               	movwf	??_USBCtrlEPAllowStatusStage
  9215  0D3D  3000               	movlw	0
  9216  0D3E  3D61               	addwfc	(_pBDTEntryEP0OutNext+1)^(0+128),w
  9217  0D3F  00F1               	movwf	??_USBCtrlEPAllowStatusStage+1
  9218  0D40  0870               	movf	??_USBCtrlEPAllowStatusStage,w
  9219  0D41  0086               	movwf	6
  9220  0D42  0871               	movf	??_USBCtrlEPAllowStatusStage+1,w
  9221  0D43  0087               	movwf	7
  9222  0D44  3008               	movlw	8
  9223  0D45  0081               	movwf	1
  9224                           
  9225                           ;usb_device.c: 1454: pBDTEntryEP0OutNext->ADR = (((uint16_t)(&SetupPkt)) & 0x7FFF);
  9226  0D46  3050               	movlw	80
  9227  0D47  00F0               	movwf	??_USBCtrlEPAllowStatusStage
  9228  0D48  3000               	movlw	0
  9229  0D49  00F1               	movwf	??_USBCtrlEPAllowStatusStage+1
  9230  0D4A  0860               	movf	_pBDTEntryEP0OutNext^(0+128),w
  9231  0D4B  0086               	movwf	6
  9232  0D4C  0861               	movf	(_pBDTEntryEP0OutNext+1)^(0+128),w
  9233  0D4D  0087               	movwf	7
  9234  0D4E  3142               	addfsr 1,2
  9235  0D4F  0870               	movf	??_USBCtrlEPAllowStatusStage,w
  9236  0D50  3FC0               	movwi [0]fsr1
  9237  0D51  0871               	movf	??_USBCtrlEPAllowStatusStage+1,w
  9238  0D52  3FC1               	movwi [1]fsr1
  9239                           
  9240                           ;usb_device.c: 1455: pBDTEntryEP0OutNext->STAT.Val = 0x80;
  9241  0D53  0860               	movf	_pBDTEntryEP0OutNext^(0+128),w
  9242  0D54  0086               	movwf	6
  9243  0D55  0861               	movf	(_pBDTEntryEP0OutNext+1)^(0+128),w
  9244  0D56  0087               	movwf	7
  9245  0D57  3080               	movlw	128
  9246  0D58  0081               	movwf	1
  9247  0D59  0008               	return
  9248  0D5A                     __end_of_USBCtrlEPAllowStatusStage:	
  9249                           
  9250                           	psect	text38
  9251  0C7C                     __ptext38:	
  9252 ;; *************** function _USBCtrlTrfInHandler *****************
  9253 ;; Defined at:
  9254 ;;		line 2592 in file "../lib/usb/src/usb_device.c"
  9255 ;; Parameters:    Size  Location     Type
  9256 ;;		None
  9257 ;; Auto vars:     Size  Location     Type
  9258 ;;  lastDTS         1    5[COMMON] unsigned char 
  9259 ;; Return value:  Size  Location     Type
  9260 ;;                  1    wreg      void 
  9261 ;; Registers used:
  9262 ;;		wreg, fsr0l, fsr0h, fsr1l, fsr1h, status,2, status,0, pclath, cstack
  9263 ;; Tracked objects:
  9264 ;;		On entry : 0/0
  9265 ;;		On exit  : 0/0
  9266 ;;		Unchanged: 0/0
  9267 ;; Data sizes:     COMMON   BANK0   BANK1   BANK2   BANK3   BANK4   BANK5   BANK6   BANK7   BANK8   BANK9  BANK10  BANK1
      +1  BANK12
  9268 ;;      Params:         0       0       0       0       0       0       0       0       0       0       0       0       
      +0       0
  9269 ;;      Locals:         1       0       0       0       0       0       0       0       0       0       0       0       
      +0       0
  9270 ;;      Temps:          2       0       0       0       0       0       0       0       0       0       0       0       
      +0       0
  9271 ;;      Totals:         3       0       0       0       0       0       0       0       0       0       0       0       
      +0       0
  9272 ;;Total ram usage:        3 bytes
  9273 ;; Hardware stack levels used:    1
  9274 ;; Hardware stack levels required when called:    1
  9275 ;; This function calls:
  9276 ;;		_USBCtrlTrfTxService
  9277 ;; This function is called by:
  9278 ;;		_USBCtrlEPService
  9279 ;; This function uses a non-reentrant model
  9280 ;;
  9281                           
  9282                           
  9283                           ;psect for function _USBCtrlTrfInHandler
  9284  0C7C                     _USBCtrlTrfInHandler:	
  9285                           
  9286                           ;usb_device.c: 2594: uint8_t lastDTS;
  9287                           ;usb_device.c: 2596: lastDTS = pBDTEntryIn[0]->STAT.DTS;
  9288                           
  9289                           ;incstack = 0
  9290                           ; Regs used in _USBCtrlTrfInHandler: [wreg-fsr1h+status,2+status,0+pclath+cstack]
  9291  0C7C  0023               	movlb	3	; select bank3
  9292  0C7D  0827               	movf	_pBDTEntryIn^(0+384),w
  9293  0C7E  0086               	movwf	6
  9294  0C7F  0828               	movf	(_pBDTEntryIn+1)^(0+384),w
  9295  0C80  0087               	movwf	7
  9296  0C81  3000               	movlw	0
  9297  0C82  1B01               	btfsc	1,6
  9298  0C83  3001               	movlw	1
  9299  0C84  00F5               	movwf	USBCtrlTrfInHandler@lastDTS
  9300                           
  9301                           ;usb_device.c: 2599: pBDTEntryIn[0] = (volatile BDT_ENTRY*)(((uintptr_t)pBDTEntryIn[0]) 
      +                          ^ 0x0004);
  9302  0C85  3004               	movlw	4
  9303  0C86  0627               	xorwf	_pBDTEntryIn^(0+384),w
  9304  0C87  00A7               	movwf	_pBDTEntryIn^(0+384)
  9305  0C88  3000               	movlw	0
  9306  0C89  0628               	xorwf	(_pBDTEntryIn+1)^(0+384),w
  9307  0C8A  00A8               	movwf	(_pBDTEntryIn+1)^(0+384)
  9308                           
  9309                           ;usb_device.c: 2604: if(USBDeviceState == ADR_PENDING_STATE)
  9310  0C8B  3008               	movlw	8
  9311  0C8C  0021               	movlb	1	; select bank1
  9312  0C8D  0662               	xorwf	_USBDeviceState^(0+128),w	;volatile
  9313  0C8E  1D03               	btfss	3,2
  9314  0C8F  2C9F               	goto	i1l3270
  9315                           
  9316                           ;usb_device.c: 2605: {
  9317                           ;usb_device.c: 2606: UADDR = (SetupPkt.bDevADR & 0x7F);
  9318  0C90  0020               	movlb	0	; select bank0
  9319  0C91  0852               	movf	82,w	;volatile
  9320  0C92  397F               	andlw	127
  9321  0C93  003D               	movlb	29	; select bank29
  9322  0C94  0096               	movwf	22	;volatile
  9323                           
  9324                           ;usb_device.c: 2607: if(UADDR != 0u)
  9325  0C95  0816               	movf	22,w	;volatile
  9326  0C96  1903               	btfsc	3,2
  9327  0C97  2C9A               	goto	i1l3268
  9328                           
  9329                           ;usb_device.c: 2608: {
  9330                           ;usb_device.c: 2609: USBDeviceState=ADDRESS_STATE;
  9331  0C98  3010               	movlw	16
  9332  0C99  2C9B               	goto	L11
  9333  0C9A                     i1l3268:	
  9334                           ;usb_device.c: 2610: }
  9335                           
  9336                           
  9337                           ;usb_device.c: 2611: else
  9338                           ;usb_device.c: 2612: {
  9339                           ;usb_device.c: 2613: USBDeviceState=DEFAULT_STATE;
  9340  0C9A  3004               	movlw	4
  9341  0C9B                     L11:	
  9342  0C9B  00F3               	movwf	??_USBCtrlTrfInHandler
  9343  0C9C  0873               	movf	??_USBCtrlTrfInHandler,w
  9344  0C9D  0021               	movlb	1	; select bank1
  9345  0C9E  00E2               	movwf	_USBDeviceState^(0+128)	;volatile
  9346  0C9F                     i1l3270:	
  9347                           
  9348                           ;usb_device.c: 2614: }
  9349                           ;usb_device.c: 2615: }
  9350                           ;usb_device.c: 2618: if(controlTransferState == 1)
  9351  0C9F  0363               	decf	_controlTransferState^(0+128),w	;volatile
  9352  0CA0  1D03               	btfss	3,2
  9353  0CA1  2CDF               	goto	i1l371
  9354                           
  9355                           ;usb_device.c: 2619: {
  9356                           ;usb_device.c: 2620: pBDTEntryIn[0]->ADR = (((uint16_t)(CtrlTrfData)) & 0x7FFF);
  9357  0CA2  3058               	movlw	88
  9358  0CA3  00F3               	movwf	??_USBCtrlTrfInHandler
  9359  0CA4  3000               	movlw	0
  9360  0CA5  00F4               	movwf	??_USBCtrlTrfInHandler+1
  9361  0CA6  0023               	movlb	3	; select bank3
  9362  0CA7  0827               	movf	_pBDTEntryIn^(0+384),w
  9363  0CA8  0086               	movwf	6
  9364  0CA9  0828               	movf	(_pBDTEntryIn+1)^(0+384),w
  9365  0CAA  0087               	movwf	7
  9366  0CAB  3142               	addfsr 1,2
  9367  0CAC  0873               	movf	??_USBCtrlTrfInHandler,w
  9368  0CAD  3FC0               	movwi [0]fsr1
  9369  0CAE  0874               	movf	??_USBCtrlTrfInHandler+1,w
  9370  0CAF  3FC1               	movwi [1]fsr1
  9371                           
  9372                           ;usb_device.c: 2621: USBCtrlTrfTxService();
  9373  0CB0  318C  2414  318C   	fcall	_USBCtrlTrfTxService
  9374                           
  9375                           ;usb_device.c: 2627: if(shortPacketStatus == 2)
  9376  0CB3  3002               	movlw	2
  9377  0CB4  0023               	movlb	3	; select bank3
  9378  0CB5  065F               	xorwf	_shortPacketStatus^(0+384),w	;volatile
  9379  0CB6  1D03               	btfss	3,2
  9380  0CB7  2CC4               	goto	i1l3280
  9381                           
  9382                           ;usb_device.c: 2628: {
  9383                           ;usb_device.c: 2631: pBDTEntryIn[0]->STAT.Val = 0x04;
  9384  0CB8  0827               	movf	_pBDTEntryIn^(0+384),w
  9385  0CB9  0086               	movwf	6
  9386  0CBA  0828               	movf	(_pBDTEntryIn+1)^(0+384),w
  9387  0CBB  0087               	movwf	7
  9388  0CBC  3004               	movlw	4
  9389  0CBD  0081               	movwf	1
  9390                           
  9391                           ;usb_device.c: 2632: pBDTEntryIn[0]->STAT.Val |= 0x80;
  9392  0CBE  0827               	movf	_pBDTEntryIn^(0+384),w
  9393  0CBF  0086               	movwf	6
  9394  0CC0  0828               	movf	(_pBDTEntryIn+1)^(0+384),w
  9395  0CC1  0087               	movwf	7
  9396  0CC2  1781               	bsf	1,7
  9397                           
  9398                           ;usb_device.c: 2633: }
  9399  0CC3  0008               	return
  9400  0CC4                     i1l3280:	
  9401                           
  9402                           ;usb_device.c: 2634: else
  9403                           ;usb_device.c: 2635: {
  9404                           ;usb_device.c: 2636: if(lastDTS == 0)
  9405  0CC4  0875               	movf	USBCtrlTrfInHandler@lastDTS,w
  9406  0CC5  1D03               	btfss	3,2
  9407  0CC6  2CD3               	goto	i1l3284
  9408                           
  9409                           ;usb_device.c: 2637: {
  9410                           ;usb_device.c: 2638: pBDTEntryIn[0]->STAT.Val = 0x40|(0x08 & 0x08);
  9411  0CC7  0827               	movf	_pBDTEntryIn^(0+384),w
  9412  0CC8  0086               	movwf	6
  9413  0CC9  0828               	movf	(_pBDTEntryIn+1)^(0+384),w
  9414  0CCA  0087               	movwf	7
  9415  0CCB  3048               	movlw	72
  9416  0CCC  0081               	movwf	1
  9417                           
  9418                           ;usb_device.c: 2639: pBDTEntryIn[0]->STAT.Val |= 0x80;
  9419  0CCD  0827               	movf	_pBDTEntryIn^(0+384),w
  9420  0CCE  0086               	movwf	6
  9421  0CCF  0828               	movf	(_pBDTEntryIn+1)^(0+384),w
  9422  0CD0  0087               	movwf	7
  9423  0CD1  1781               	bsf	1,7
  9424                           
  9425                           ;usb_device.c: 2640: }
  9426  0CD2  0008               	return
  9427  0CD3                     i1l3284:	
  9428                           
  9429                           ;usb_device.c: 2641: else
  9430                           ;usb_device.c: 2642: {
  9431                           ;usb_device.c: 2643: pBDTEntryIn[0]->STAT.Val = 0x00|(0x08 & 0x08);
  9432  0CD3  0827               	movf	_pBDTEntryIn^(0+384),w
  9433  0CD4  0086               	movwf	6
  9434  0CD5  0828               	movf	(_pBDTEntryIn+1)^(0+384),w
  9435  0CD6  0087               	movwf	7
  9436  0CD7  3008               	movlw	8
  9437  0CD8  0081               	movwf	1
  9438                           
  9439                           ;usb_device.c: 2644: pBDTEntryIn[0]->STAT.Val |= 0x80;
  9440  0CD9  0827               	movf	_pBDTEntryIn^(0+384),w
  9441  0CDA  0086               	movwf	6
  9442  0CDB  0828               	movf	(_pBDTEntryIn+1)^(0+384),w
  9443  0CDC  0087               	movwf	7
  9444  0CDD  1781               	bsf	1,7
  9445                           
  9446                           ;usb_device.c: 2645: }
  9447                           ;usb_device.c: 2646: }
  9448                           ;usb_device.c: 2647: }
  9449  0CDE  0008               	return
  9450  0CDF                     i1l371:	
  9451                           
  9452                           ;usb_device.c: 2648: else
  9453                           ;usb_device.c: 2649: {
  9454                           ;usb_device.c: 2653: if(outPipes[0].info.bits.busy == 1)
  9455  0CDF  0023               	movlb	3	; select bank3
  9456  0CE0  1FA2               	btfss	(_outPipes^(0+384)+2),7	;volatile
  9457  0CE1  2CE5               	goto	i1l3288
  9458                           
  9459                           ;usb_device.c: 2656: {
  9460                           ;usb_device.c: 2657: outPipes[0].pFunc();
  9461  0CE2  0825               	movf	(low ((_outPipes| (0+256)+5)))^(0+128),w	;volatile
  9462  0CE3  0826               	movf	((low ((_outPipes| (0+256)+5))+1))^(0+128),w	;volatile
  9463                           
  9464                           ;usb_device.c: 2658: }
  9465                           ;usb_device.c: 2659: outPipes[0].info.bits.busy = 0;
  9466  0CE4  13A2               	bcf	(_outPipes^(0+384)+2),7	;volatile
  9467  0CE5                     i1l3288:	
  9468                           
  9469                           ;usb_device.c: 2660: }
  9470                           ;usb_device.c: 2662: controlTransferState = 0;
  9471  0CE5  0021               	movlb	1	; select bank1
  9472  0CE6  01E3               	clrf	_controlTransferState^(0+128)	;volatile
  9473  0CE7  0008               	return
  9474  0CE8                     __end_of_USBCtrlTrfInHandler:	
  9475                           
  9476                           	psect	text39
  9477  0C14                     __ptext39:	
  9478 ;; *************** function _USBCtrlTrfTxService *****************
  9479 ;; Defined at:
  9480 ;;		line 1771 in file "../lib/usb/src/usb_device.c"
  9481 ;; Parameters:    Size  Location     Type
  9482 ;;		None
  9483 ;; Auto vars:     Size  Location     Type
  9484 ;;  byteToSend      1    2[COMMON] unsigned char 
  9485 ;; Return value:  Size  Location     Type
  9486 ;;                  1    wreg      void 
  9487 ;; Registers used:
  9488 ;;		wreg, fsr0l, fsr0h, fsr1l, fsr1h, status,2, status,0, pclath
  9489 ;; Tracked objects:
  9490 ;;		On entry : 0/0
  9491 ;;		On exit  : 0/0
  9492 ;;		Unchanged: 0/0
  9493 ;; Data sizes:     COMMON   BANK0   BANK1   BANK2   BANK3   BANK4   BANK5   BANK6   BANK7   BANK8   BANK9  BANK10  BANK1
      +1  BANK12
  9494 ;;      Params:         0       0       0       0       0       0       0       0       0       0       0       0       
      +0       0
  9495 ;;      Locals:         1       0       0       0       0       0       0       0       0       0       0       0       
      +0       0
  9496 ;;      Temps:          2       0       0       0       0       0       0       0       0       0       0       0       
      +0       0
  9497 ;;      Totals:         3       0       0       0       0       0       0       0       0       0       0       0       
      +0       0
  9498 ;;Total ram usage:        3 bytes
  9499 ;; Hardware stack levels used:    1
  9500 ;; This function calls:
  9501 ;;		Nothing
  9502 ;; This function is called by:
  9503 ;;		_USBCtrlEPAllowDataStage
  9504 ;;		_USBCtrlTrfInHandler
  9505 ;; This function uses a non-reentrant model
  9506 ;;
  9507                           
  9508                           
  9509                           ;psect for function _USBCtrlTrfTxService
  9510  0C14                     _USBCtrlTrfTxService:	
  9511                           
  9512                           ;usb_device.c: 1773: uint8_t byteToSend;
  9513                           ;usb_device.c: 1777: byteToSend = 8;
  9514                           
  9515                           ;incstack = 0
  9516                           ; Regs used in _USBCtrlTrfTxService: [wreg-fsr1h+status,2+status,0+pclath]
  9517  0C14  3008               	movlw	8
  9518  0C15  00F0               	movwf	??_USBCtrlTrfTxService
  9519  0C16  0870               	movf	??_USBCtrlTrfTxService,w
  9520  0C17  00F2               	movwf	USBCtrlTrfTxService@byteToSend
  9521                           
  9522                           ;usb_device.c: 1778: if(inPipes[0].wCount.Val < (uint8_t)8)
  9523  0C18  3000               	movlw	0
  9524  0C19  0023               	movlb	3	; select bank3
  9525  0C1A  0237               	subwf	((_inPipes+1)^(0+384)+3),w	;volatile
  9526  0C1B  3008               	movlw	8
  9527  0C1C  1903               	skipnz
  9528  0C1D  0236               	subwf	(_inPipes^(0+384)+3),w	;volatile
  9529  0C1E  1803               	skipnc
  9530  0C1F  2C30               	goto	i1l271
  9531                           
  9532                           ;usb_device.c: 1779: {
  9533                           ;usb_device.c: 1780: byteToSend = inPipes[0].wCount.Val;
  9534  0C20  0836               	movf	(_inPipes^(0+384)+3),w	;volatile
  9535  0C21  00F0               	movwf	??_USBCtrlTrfTxService
  9536  0C22  0870               	movf	??_USBCtrlTrfTxService,w
  9537  0C23  00F2               	movwf	USBCtrlTrfTxService@byteToSend
  9538                           
  9539                           ;usb_device.c: 1787: if(shortPacketStatus == 0)
  9540  0C24  085F               	movf	_shortPacketStatus^(0+384),w	;volatile
  9541  0C25  1D03               	btfss	3,2
  9542  0C26  2C29               	goto	i1l2760
  9543                           
  9544                           ;usb_device.c: 1788: {
  9545                           ;usb_device.c: 1789: shortPacketStatus = 1;
  9546  0C27  3001               	movlw	1
  9547  0C28  2C2D               	goto	L12
  9548  0C29                     i1l2760:	
  9549                           ;usb_device.c: 1790: }
  9550                           
  9551                           
  9552                           ;usb_device.c: 1791: else if(shortPacketStatus == 1)
  9553  0C29  035F               	decf	_shortPacketStatus^(0+384),w	;volatile
  9554  0C2A  1D03               	btfss	3,2
  9555  0C2B  2C30               	goto	i1l271
  9556                           
  9557                           ;usb_device.c: 1792: {
  9558                           ;usb_device.c: 1793: shortPacketStatus = 2;
  9559  0C2C  3002               	movlw	2
  9560  0C2D                     L12:	
  9561  0C2D  00F0               	movwf	??_USBCtrlTrfTxService
  9562  0C2E  0870               	movf	??_USBCtrlTrfTxService,w
  9563  0C2F  00DF               	movwf	_shortPacketStatus^(0+384)	;volatile
  9564  0C30                     i1l271:	
  9565                           
  9566                           ;usb_device.c: 1794: }
  9567                           ;usb_device.c: 1795: }
  9568                           ;usb_device.c: 1799: inPipes[0].wCount.Val -= byteToSend;
  9569  0C30  0872               	movf	USBCtrlTrfTxService@byteToSend,w
  9570  0C31  00F0               	movwf	??_USBCtrlTrfTxService
  9571  0C32  01F1               	clrf	??_USBCtrlTrfTxService+1
  9572  0C33  0870               	movf	??_USBCtrlTrfTxService,w
  9573  0C34  02B6               	subwf	(_inPipes^(0+384)+3),f	;volatile
  9574  0C35  0871               	movf	??_USBCtrlTrfTxService+1,w
  9575  0C36  3BB7               	subwfb	((_inPipes+1)^(0+384)+3),f	;volatile
  9576                           
  9577                           ;usb_device.c: 1804: pBDTEntryIn[0]->CNT = byteToSend;
  9578  0C37  0827               	movf	_pBDTEntryIn^(0+384),w
  9579  0C38  3E01               	addlw	1
  9580  0C39  00F0               	movwf	??_USBCtrlTrfTxService
  9581  0C3A  3000               	movlw	0
  9582  0C3B  3D28               	addwfc	(_pBDTEntryIn+1)^(0+384),w
  9583  0C3C  00F1               	movwf	??_USBCtrlTrfTxService+1
  9584  0C3D  0870               	movf	??_USBCtrlTrfTxService,w
  9585  0C3E  0086               	movwf	6
  9586  0C3F  0871               	movf	??_USBCtrlTrfTxService+1,w
  9587  0C40  0087               	movwf	7
  9588  0C41  0872               	movf	USBCtrlTrfTxService@byteToSend,w
  9589  0C42  0081               	movwf	1
  9590                           
  9591                           ;usb_device.c: 1808: pDst = (volatile uint8_t*)CtrlTrfData;
  9592  0C43  3058               	movlw	88
  9593  0C44  00F0               	movwf	??_USBCtrlTrfTxService
  9594  0C45  0870               	movf	??_USBCtrlTrfTxService,w
  9595  0C46  00DE               	movwf	_pDst^(0+384)
  9596                           
  9597                           ;usb_device.c: 1809: if(inPipes[0].info.bits.ctrl_trf_mem == 0x00)
  9598  0C47  1C35               	btfss	(_inPipes^(0+384)+2),0	;volatile
  9599  0C48  2C5F               	goto	i1l2780
  9600  0C49  2C78               	goto	i1l2790
  9601  0C4A                     i1l2772:	
  9602                           ;usb_device.c: 1810: {
  9603                           ;usb_device.c: 1811: while(byteToSend)
  9604                           
  9605                           
  9606                           ;usb_device.c: 1812: {
  9607                           ;usb_device.c: 1813: *pDst++ = *inPipes[0].pSrc.bRom++;
  9608  0C4A  0833               	movf	_inPipes^(0+384),w	;volatile
  9609  0C4B  0084               	movwf	4
  9610  0C4C  0834               	movf	(_inPipes+1)^(0+384),w	;volatile
  9611  0C4D  0085               	movwf	5
  9612  0C4E  0800               	movf	0,w	;code access
  9613  0C4F  00F0               	movwf	??_USBCtrlTrfTxService
  9614  0C50  085E               	movf	_pDst^(0+384),w
  9615  0C51  0086               	movwf	6
  9616  0C52  0187               	clrf	7
  9617  0C53  0870               	movf	??_USBCtrlTrfTxService,w
  9618  0C54  0081               	movwf	1
  9619  0C55  3001               	movlw	1
  9620  0C56  07B3               	addwf	_inPipes^(0+384),f	;volatile
  9621  0C57  3000               	movlw	0
  9622  0C58  3DB4               	addwfc	(_inPipes+1)^(0+384),f	;volatile
  9623  0C59  3001               	movlw	1
  9624  0C5A  00F0               	movwf	??_USBCtrlTrfTxService
  9625  0C5B  0870               	movf	??_USBCtrlTrfTxService,w
  9626  0C5C  07DE               	addwf	_pDst^(0+384),f
  9627                           
  9628                           ;usb_device.c: 1814: byteToSend--;
  9629  0C5D  3001               	movlw	1
  9630  0C5E  02F2               	subwf	USBCtrlTrfTxService@byteToSend,f
  9631  0C5F                     i1l2780:	
  9632  0C5F  0872               	movf	USBCtrlTrfTxService@byteToSend,w
  9633  0C60  1903               	btfsc	3,2
  9634  0C61  0008               	return
  9635  0C62  2C4A               	goto	i1l2772
  9636  0C63                     i1l2782:	
  9637                           ;usb_device.c: 1817: else
  9638                           ;usb_device.c: 1818: {
  9639                           ;usb_device.c: 1819: while(byteToSend)
  9640                           
  9641                           ;usb_device.c: 1815: }
  9642                           ;usb_device.c: 1816: }
  9643                           
  9644                           
  9645                           ;usb_device.c: 1820: {
  9646                           ;usb_device.c: 1821: *pDst++ = *inPipes[0].pSrc.bRam++;
  9647  0C63  0833               	movf	_inPipes^(0+384),w	;volatile
  9648  0C64  0084               	movwf	4
  9649  0C65  0834               	movf	(_inPipes+1)^(0+384),w	;volatile
  9650  0C66  0085               	movwf	5
  9651  0C67  0800               	movf	0,w	;code access
  9652  0C68  00F0               	movwf	??_USBCtrlTrfTxService
  9653  0C69  085E               	movf	_pDst^(0+384),w
  9654  0C6A  0086               	movwf	6
  9655  0C6B  0187               	clrf	7
  9656  0C6C  0870               	movf	??_USBCtrlTrfTxService,w
  9657  0C6D  0081               	movwf	1
  9658  0C6E  3001               	movlw	1
  9659  0C6F  07B3               	addwf	_inPipes^(0+384),f	;volatile
  9660  0C70  3000               	movlw	0
  9661  0C71  3DB4               	addwfc	(_inPipes+1)^(0+384),f	;volatile
  9662  0C72  3001               	movlw	1
  9663  0C73  00F0               	movwf	??_USBCtrlTrfTxService
  9664  0C74  0870               	movf	??_USBCtrlTrfTxService,w
  9665  0C75  07DE               	addwf	_pDst^(0+384),f
  9666                           
  9667                           ;usb_device.c: 1822: byteToSend--;
  9668  0C76  3001               	movlw	1
  9669  0C77  02F2               	subwf	USBCtrlTrfTxService@byteToSend,f
  9670  0C78                     i1l2790:	
  9671  0C78  0872               	movf	USBCtrlTrfTxService@byteToSend,w
  9672  0C79  1903               	btfsc	3,2
  9673  0C7A  0008               	return
  9674  0C7B  2C63               	goto	i1l2782
  9675  0C7C                     __end_of_USBCtrlTrfTxService:	
  9676  007E                     btemp	set	126	;btemp
  9677  007E                     int$flags	set	126
  9678  007E                     wtemp	set	126
  9679  007E                     wtemp0	set	126
  9680  0080                     wtemp1	set	128
  9681  0082                     wtemp2	set	130
  9682  0084                     wtemp3	set	132
  9683  0086                     wtemp4	set	134
  9684  0088                     wtemp5	set	136
  9685  007F                     wtemp6	set	127
  9686  007E                     ttemp	set	126
  9687  007E                     ttemp0	set	126
  9688  0081                     ttemp1	set	129
  9689  0084                     ttemp2	set	132
  9690  0087                     ttemp3	set	135
  9691  007F                     ttemp4	set	127
  9692  007E                     ltemp	set	126
  9693  007E                     ltemp0	set	126
  9694  0082                     ltemp1	set	130
  9695  0086                     ltemp2	set	134
  9696  0080                     ltemp3	set	128


Data Sizes:
    Strings     0
    Constant    201
    Data        0
    BSS         290
    Persistent  0
    Stack       0

Auto Spaces:
    Space          Size  Autos    Used
    COMMON           14     14      14
    BANK0            16     16      16
    BANK1            16      6      12
    BANK2            16     15      15
    BANK3            80      5      79
    BANK4            80      0      18
    BANK5            80      0      64
    BANK6            80      0      64
    BANK7            80      0      64
    BANK8            80      0       0
    BANK9            80      0       0
    BANK10           80      0       0
    BANK11           80      0       0
    BANK12           48      0       0

Pointer List with Targets:

    __builtin_memcpy$1	PTR const void  size(2) Largest target is 4096
		 -> cdc_data_tx(BANK1[64]), cdc_data_rx(BANK2[64]), CtrlTrfData(BANK0[8]), RAM(DATA[4096]), 
		 -> SetupPkt(BANK0[8]), NULL(NULL[0]), 

    __builtin_memcpy$0	PTR void  size(1) Largest target is 8
		 -> SetupPkt(BANK0[8]), 

    USER_USB_CALLBACK_EVENT_HANDLER@pdata	PTR void  size(2) Largest target is 4096
		 -> RAM(DATA[4096]), USTATcopy(BANK1[1]), USBActiveConfiguration(BANK3[1]), NULL(NULL[0]), 
		 -> BDT(BANK0[48]), 

    memset@p1	PTR void  size(2) Largest target is 48
		 -> USBAlternateInterface(BANK3[2]), BDT(BANK0[48]), 

    memset@p	PTR unsigned char  size(2) Largest target is 48
		 -> USBAlternateInterface(BANK3[2]), BDT(BANK0[48]), 

    putUSBUSART@data	PTR unsigned char  size(1) Largest target is 64
		 -> stanje(BANK5[64]), 

    getsUSBUSART@buffer	PTR unsigned char  size(1) Largest target is 64
		 -> readBuffer(BANK6[64]), 

    CDCDataInHandle	PTR void  size(2) Largest target is 4096
		 -> RAM(DATA[4096]), NULL(NULL[0]), BDT(BANK0[48]), 

    CDCDataOutHandle	PTR void  size(2) Largest target is 4096
		 -> RAM(DATA[4096]), NULL(NULL[0]), BDT(BANK0[48]), 

    pCDCDst.wRom	PTR const unsigned int  size(1) Largest target is 0

    pCDCDst.bRom	PTR const unsigned char  size(1) Largest target is 0

    pCDCDst.wRam	PTR unsigned int  size(1) Largest target is 0

    pCDCDst.bRam	PTR unsigned char  size(1) Largest target is 0

    S1367_POINTER$wRom	PTR const unsigned int  size(1) Largest target is 0

    pCDCSrc.wRom	PTR const unsigned int  size(1) Largest target is 0

    S1367_POINTER$bRom	PTR const unsigned char  size(1) Largest target is 0

    pCDCSrc.bRom	PTR const unsigned char  size(1) Largest target is 0

    S1367_POINTER$wRam	PTR unsigned int  size(1) Largest target is 0

    pCDCSrc.wRam	PTR unsigned int  size(1) Largest target is 0

    S1367_POINTER$bRam	PTR unsigned char  size(1) Largest target is 0

    pCDCSrc.bRam	PTR unsigned char  size(1) Largest target is 0

    USBStdFeatureReqHandler@pUEP	PTR unsigned char  size(2) Largest target is 1
		 -> UEP0(SFR29[1]), 

    USBStdFeatureReqHandler@p	PTR struct __BDT size(2) Largest target is 4096
		 -> RAM(DATA[4096]), NULL(NULL[0]), BDT(BANK0[48]), 

    sp____builtin_memcpy	PTR void  size(2) Largest target is 4096
		 -> RAM(DATA[4096]), 

    USBStdGetStatusHandler@p	PTR struct __BDT size(2) Largest target is 4096
		 -> RAM(DATA[4096]), NULL(NULL[0]), BDT(BANK0[48]), 

    sp__memset	PTR void  size(2) Largest target is 48
		 -> USBAlternateInterface(BANK3[2]), BDT(BANK0[48]), 

    USBStdSetCfgHandler@p	PTR unsigned char  size(2) Largest target is 1
		 -> UEP1(SFR29[1]), 

    pDst	PTR volatile unsigned char  size(1) Largest target is 8
		 -> CtrlTrfData(BANK0[8]), NULL(NULL[0]), 

    USBConfigureEndpoint@handle	PTR volatile struct __BDT size(1) Largest target is 48
		 -> BDT(BANK0[48]), 

    pBDTEntryEP0OutCurrent	PTR volatile struct __BDT size(1) Largest target is 48
		 -> NULL(NULL[0]), BDT(BANK0[48]), 

    pBDTEntryEP0OutNext	PTR volatile struct __BDT size(2) Largest target is 4096
		 -> RAM(DATA[4096]), NULL(NULL[0]), BDT(BANK0[48]), 

    USBTransferOnePacket@data	PTR unsigned char  size(2) Largest target is 64
		 -> cdc_data_tx(BANK1[64]), cdc_data_rx(BANK2[64]), NULL(NULL[0]), 

    sp__USBTransferOnePacket	PTR void  size(2) Largest target is 4096
		 -> RAM(DATA[4096]), NULL(NULL[0]), BDT(BANK0[48]), 

    USBTransferOnePacket@handle	PTR volatile struct __BDT size(2) Largest target is 4096
		 -> RAM(DATA[4096]), NULL(NULL[0]), BDT(BANK0[48]), 

    USBEnableEndpoint@p	PTR unsigned char  size(2) Largest target is 1
		 -> UEP0(SFR29[1]), 

    pBDTEntryOut	PTR volatile struct __BDT[3] size(2) Largest target is 4096
		 -> RAM(DATA[4096]), NULL(NULL[0]), BDT(BANK0[48]), 

    pBDTEntryIn	PTR volatile struct __BDT[3] size(2) Largest target is 4096
		 -> RAM(DATA[4096]), NULL(NULL[0]), BDT(BANK0[48]), 

    S249$pFunc	PTR FTN()void  size(2) Largest target is 1
		 -> Absolute function(), 

    outPipes.pFunc	PTR FTN()void  size(2) Largest target is 1
		 -> Absolute function(), 

    S239$wRam	PTR unsigned int  size(1) Largest target is 0

    outPipes.pDst.wRam	PTR unsigned int  size(1) Largest target is 0

    S239$bRam	PTR unsigned char  size(1) Largest target is 0

    outPipes.pDst.bRam	PTR unsigned char  size(1) Largest target is 0

    S215$wRom	PTR const unsigned int  size(1) Largest target is 0

    inPipes.pSrc.wRom	PTR const unsigned int  size(1) Largest target is 0

    S215$wRam	PTR unsigned int  size(1) Largest target is 0

    inPipes.pSrc.wRam	PTR unsigned int  size(1) Largest target is 0

    S215$bRom	PTR const unsigned char  size(1) Largest target is 0

    inPipes.pSrc.bRom	PTR const unsigned char  size(1) Largest target is 0

    S215$bRam	PTR unsigned char  size(1) Largest target is 0

    inPipes.pSrc.bRam	PTR unsigned char  size(1) Largest target is 0

    USBDeviceInit@p	PTR unsigned char  size(2) Largest target is 1
		 -> UEP1(SFR29[1]), 

    USB_SD_Ptr	const PTR const unsigned char [3] size(2) Largest target is 52
		 -> sd002(CODE[52]), sd001(CODE[52]), sd000(CODE[4]), 

    USB_CD_Ptr	const PTR const unsigned char [1] size(2) Largest target is 67
		 -> configDescriptor1(CODE[67]), 


Critical Paths under _main in COMMON

    None.

Critical Paths under _SYS_InterruptHigh in COMMON

    _USBCtrlEPServiceComplete->_USBCtrlEPAllowDataStage
    _USBCtrlEPAllowDataStage->_USBCtrlTrfTxService
    _USER_USB_CALLBACK_EVENT_HANDLER->i1_CDCInitEP
    i1_CDCInitEP->i1_USBEnableEndpoint
    i1_USBEnableEndpoint->i1_USBConfigureEndpoint
    _USBCtrlTrfOutHandler->_USBCtrlTrfRxService
    _USBCtrlTrfRxService->_USBCtrlEPAllowStatusStage
    _USBCtrlTrfInHandler->_USBCtrlTrfTxService

Critical Paths under _main in BANK0

    None.

Critical Paths under _SYS_InterruptHigh in BANK0

    _SYS_InterruptHigh->_USBDeviceTasks
    _USBWakeFromSuspend->_USER_USB_CALLBACK_EVENT_HANDLER
    _USBSuspend->_USER_USB_CALLBACK_EVENT_HANDLER
    _USBCtrlEPService->_USBCtrlTrfSetupHandler
    _USBCtrlTrfSetupHandler->_USBCheckStdRequest
    _USBCheckStdRequest->_USBStdFeatureReqHandler
    _USBStdSetCfgHandler->_USER_USB_CALLBACK_EVENT_HANDLER
    _USBStdFeatureReqHandler->_USER_USB_CALLBACK_EVENT_HANDLER

Critical Paths under _main in BANK1

    None.

Critical Paths under _SYS_InterruptHigh in BANK1

    _SYS_InterruptHigh->_USBDeviceTasks
    _USBDeviceTasks->_USBCtrlEPService

Critical Paths under _main in BANK2

    _main->_getsUSBUSART
    _getsUSBUSART->_USBTransferOnePacket
    _CDCTxService->_USBTransferOnePacket
    _CDCInitEP->_USBEnableEndpoint
    _USBEnableEndpoint->_USBConfigureEndpoint

Critical Paths under _SYS_InterruptHigh in BANK2

    None.

Critical Paths under _main in BANK3

    None.

Critical Paths under _SYS_InterruptHigh in BANK3

    None.

Critical Paths under _main in BANK4

    None.

Critical Paths under _SYS_InterruptHigh in BANK4

    None.

Critical Paths under _main in BANK5

    None.

Critical Paths under _SYS_InterruptHigh in BANK5

    None.

Critical Paths under _main in BANK6

    None.

Critical Paths under _SYS_InterruptHigh in BANK6

    None.

Critical Paths under _main in BANK7

    None.

Critical Paths under _SYS_InterruptHigh in BANK7

    None.

Critical Paths under _main in BANK8

    None.

Critical Paths under _SYS_InterruptHigh in BANK8

    None.

Critical Paths under _main in BANK9

    None.

Critical Paths under _SYS_InterruptHigh in BANK9

    None.

Critical Paths under _main in BANK10

    None.

Critical Paths under _SYS_InterruptHigh in BANK10

    None.

Critical Paths under _main in BANK11

    None.

Critical Paths under _SYS_InterruptHigh in BANK11

    None.

Critical Paths under _main in BANK12

    None.

Critical Paths under _SYS_InterruptHigh in BANK12

    None.

Call Graph Tables:

 ---------------------------------------------------------------------------------
 (Depth) Function   	        Calls       Base Space   Used Autos Params    Refs
 ---------------------------------------------------------------------------------
 (0) _main                                                 5     5      0    8402
                                              0 BANK3      5     5      0
                          _CDCInitEP
                       _CDCTxService
                  _SYSTEM_Initialize
                    _USBDeviceAttach
                      _USBDeviceInit
                       _getsUSBUSART
                        _putUSBUSART
 ---------------------------------------------------------------------------------
 (1) _putUSBUSART                                          3     2      1     205
                                              0 BANK2      3     2      1
 ---------------------------------------------------------------------------------
 (1) _getsUSBUSART                                         4     3      1    2332
                                             11 BANK2      4     3      1
               _USBTransferOnePacket
 ---------------------------------------------------------------------------------
 (1) _USBDeviceInit                                        5     5      0     396
                                              0 BANK2      5     5      0
 ---------------------------------------------------------------------------------
 (1) _USBDeviceAttach                                      1     1      0       0
                                              0 BANK2      1     1      0
 ---------------------------------------------------------------------------------
 (1) _SYSTEM_Initialize                                    1     1      0      31
                                              0 BANK2      1     1      0
 ---------------------------------------------------------------------------------
 (1) _CDCTxService                                         3     3      0    2294
                                             11 BANK2      3     3      0
               _USBTransferOnePacket
 ---------------------------------------------------------------------------------
 (1) _CDCInitEP                                            1     1      0    3045
                                             13 BANK2      1     1      0
                  _USBEnableEndpoint
               _USBTransferOnePacket
 ---------------------------------------------------------------------------------
 (2) _USBTransferOnePacket                                11     7      4    2093
                                              0 BANK2     11     7      4
 ---------------------------------------------------------------------------------
 (2) _USBEnableEndpoint                                    6     5      1     952
                                              7 BANK2      6     5      1
               _USBConfigureEndpoint
 ---------------------------------------------------------------------------------
 (3) _USBConfigureEndpoint                                 7     6      1     524
                                              0 BANK2      7     6      1
 ---------------------------------------------------------------------------------
 Estimated maximum stack depth 3
 ---------------------------------------------------------------------------------
 (Depth) Function   	        Calls       Base Space   Used Autos Params    Refs
 ---------------------------------------------------------------------------------
 (4) _SYS_InterruptHigh                                    1     1      0   27385
                                              5 BANK1      1     1      0
                     _USBDeviceTasks
 ---------------------------------------------------------------------------------
 (5) _USBDeviceTasks                                       3     3      0   27385
                                             15 BANK0      1     1      0
                                              3 BANK1      2     2      0
          _USBCtrlEPAllowStatusStage
                   _USBCtrlEPService
      _USBIncrement1msInternalTimers
                    _USBStallHandler
                         _USBSuspend
                 _USBWakeFromSuspend
    _USER_USB_CALLBACK_EVENT_HANDLER
                    i1_USBDeviceInit
 ---------------------------------------------------------------------------------
 (6) i1_USBDeviceInit                                      5     5      0     272
                                              0 COMMON     5     5      0
 ---------------------------------------------------------------------------------
 (6) _USBWakeFromSuspend                                   1     1      0    3649
                                              6 BANK0      1     1      0
    _USER_USB_CALLBACK_EVENT_HANDLER
 ---------------------------------------------------------------------------------
 (6) _USBSuspend                                           1     1      0    3649
                                              6 BANK0      1     1      0
    _USER_USB_CALLBACK_EVENT_HANDLER
 ---------------------------------------------------------------------------------
 (6) _USBStallHandler                                      1     1      0       0
                                              0 COMMON     1     1      0
 ---------------------------------------------------------------------------------
 (6) _USBIncrement1msInternalTimers                        1     1      0       0
                                              0 COMMON     1     1      0
 ---------------------------------------------------------------------------------
 (6) _USBCtrlEPService                                     3     3      0   16120
                                              0 BANK1      3     3      0
                _USBCtrlTrfInHandler
               _USBCtrlTrfOutHandler
             _USBCtrlTrfSetupHandler
 ---------------------------------------------------------------------------------
 (7) _USBCtrlTrfSetupHandler                               1     1      0   15891
                                             14 BANK0      1     1      0
                 _USBCheckStdRequest
           _USBCtrlEPServiceComplete
    _USER_USB_CALLBACK_EVENT_HANDLER
 ---------------------------------------------------------------------------------
 (8) _USBCtrlEPServiceComplete                             2     2      0      92
                                              5 COMMON     2     2      0
            _USBCtrlEPAllowDataStage
          _USBCtrlEPAllowStatusStage
 ---------------------------------------------------------------------------------
 (9) _USBCtrlEPAllowDataStage                              2     2      0      92
                                              3 COMMON     2     2      0
                _USBCtrlTrfTxService
 ---------------------------------------------------------------------------------
 (8) _USBCheckStdRequest                                   1     1      0   12150
                                             13 BANK0      1     1      0
            _USBStdFeatureReqHandler
                _USBStdGetDscHandler
             _USBStdGetStatusHandler
                _USBStdSetCfgHandler
    _USER_USB_CALLBACK_EVENT_HANDLER
 ---------------------------------------------------------------------------------
 (9) _USBStdSetCfgHandler                                  5     5      0    4335
                                              6 BANK0      5     5      0
    _USER_USB_CALLBACK_EVENT_HANDLER
                             _memset
 ---------------------------------------------------------------------------------
 (10) _memset                                              8     2      6     526
                                              0 COMMON     8     2      6
 ---------------------------------------------------------------------------------
 (9) _USBStdGetStatusHandler                               3     3      0      46
                                              0 COMMON     3     3      0
 ---------------------------------------------------------------------------------
 (9) _USBStdGetDscHandler                                  3     3      0       0
                                              0 COMMON     3     3      0
 ---------------------------------------------------------------------------------
 (9) _USBStdFeatureReqHandler                              7     7      0    4120
                                              6 BANK0      7     7      0
    _USER_USB_CALLBACK_EVENT_HANDLER
 ---------------------------------------------------------------------------------
 (6) _USER_USB_CALLBACK_EVENT_HANDLER                      6     0      6    3649
                                              0 BANK0      6     0      6
                 _USBCheckCDCRequest
                        i1_CDCInitEP
                i1_SYSTEM_Initialize
 ---------------------------------------------------------------------------------
 (7) i1_SYSTEM_Initialize                                  1     1      0      22
                                              0 COMMON     1     1      0
 ---------------------------------------------------------------------------------
 (7) i1_CDCInitEP                                          1     1      0     935
                                             13 COMMON     1     1      0
                i1_USBEnableEndpoint
             i1_USBTransferOnePacket
 ---------------------------------------------------------------------------------
 (8) i1_USBTransferOnePacket                              11     7      4     454
                                              0 COMMON    11     7      4
 ---------------------------------------------------------------------------------
 (8) i1_USBEnableEndpoint                                  6     5      1     481
                                              7 COMMON     6     5      1
             i1_USBConfigureEndpoint
 ---------------------------------------------------------------------------------
 (9) i1_USBConfigureEndpoint                               7     6      1     274
                                              0 COMMON     7     6      1
 ---------------------------------------------------------------------------------
 (7) _USBCheckCDCRequest                                   1     1      0       0
                                              0 COMMON     1     1      0
 ---------------------------------------------------------------------------------
 (7) _USBCtrlTrfOutHandler                                 2     2      0     114
                                              6 COMMON     2     2      0
                _USBCtrlTrfRxService
 ---------------------------------------------------------------------------------
 (8) _USBCtrlTrfRxService                                  4     4      0     114
                                              2 COMMON     4     4      0
          _USBCtrlEPAllowStatusStage
 ---------------------------------------------------------------------------------
 (9) _USBCtrlEPAllowStatusStage                            2     2      0       0
                                              0 COMMON     2     2      0
 ---------------------------------------------------------------------------------
 (7) _USBCtrlTrfInHandler                                  3     3      0     115
                                              3 COMMON     3     3      0
                _USBCtrlTrfTxService
 ---------------------------------------------------------------------------------
 (10) _USBCtrlTrfTxService                                 3     3      0      92
                                              0 COMMON     3     3      0
 ---------------------------------------------------------------------------------
 Estimated maximum stack depth 10
 ---------------------------------------------------------------------------------

 Call Graph Graphs:

 _main (ROOT)
   _CDCInitEP
     _USBEnableEndpoint
       _USBConfigureEndpoint
     _USBTransferOnePacket
   _CDCTxService
     _USBTransferOnePacket
   _SYSTEM_Initialize
   _USBDeviceAttach
   _USBDeviceInit
   _getsUSBUSART
     _USBTransferOnePacket
   _putUSBUSART

 _SYS_InterruptHigh (ROOT)
   _USBDeviceTasks
     _USBCtrlEPAllowStatusStage
     _USBCtrlEPService
       _USBCtrlTrfInHandler
         _USBCtrlTrfTxService
       _USBCtrlTrfOutHandler
         _USBCtrlTrfRxService
           _USBCtrlEPAllowStatusStage
       _USBCtrlTrfSetupHandler
         _USBCheckStdRequest
           _USBStdFeatureReqHandler
             _USER_USB_CALLBACK_EVENT_HANDLER
               _USBCheckCDCRequest
               i1_CDCInitEP
                 i1_USBEnableEndpoint
                   i1_USBConfigureEndpoint
                 i1_USBTransferOnePacket
               i1_SYSTEM_Initialize
           _USBStdGetDscHandler
           _USBStdGetStatusHandler
           _USBStdSetCfgHandler
             _USER_USB_CALLBACK_EVENT_HANDLER
               _USBCheckCDCRequest
               i1_CDCInitEP
                 i1_USBEnableEndpoint
                   i1_USBConfigureEndpoint
                 i1_USBTransferOnePacket
               i1_SYSTEM_Initialize
             _memset
           _USER_USB_CALLBACK_EVENT_HANDLER
             _USBCheckCDCRequest
             i1_CDCInitEP
               i1_USBEnableEndpoint
                 i1_USBConfigureEndpoint
               i1_USBTransferOnePacket
             i1_SYSTEM_Initialize
         _USBCtrlEPServiceComplete
           _USBCtrlEPAllowDataStage
             _USBCtrlTrfTxService
           _USBCtrlEPAllowStatusStage
         _USER_USB_CALLBACK_EVENT_HANDLER
           _USBCheckCDCRequest
           i1_CDCInitEP
             i1_USBEnableEndpoint
               i1_USBConfigureEndpoint
             i1_USBTransferOnePacket
           i1_SYSTEM_Initialize
     _USBIncrement1msInternalTimers
     _USBStallHandler
     _USBSuspend
       _USER_USB_CALLBACK_EVENT_HANDLER
         _USBCheckCDCRequest
         i1_CDCInitEP
           i1_USBEnableEndpoint
             i1_USBConfigureEndpoint
           i1_USBTransferOnePacket
         i1_SYSTEM_Initialize
     _USBWakeFromSuspend
       _USER_USB_CALLBACK_EVENT_HANDLER
         _USBCheckCDCRequest
         i1_CDCInitEP
           i1_USBEnableEndpoint
             i1_USBConfigureEndpoint
           i1_USBTransferOnePacket
         i1_SYSTEM_Initialize
     _USER_USB_CALLBACK_EVENT_HANDLER
       _USBCheckCDCRequest
       i1_CDCInitEP
         i1_USBEnableEndpoint
           i1_USBConfigureEndpoint
         i1_USBTransferOnePacket
       i1_SYSTEM_Initialize
     i1_USBDeviceInit

 Address spaces:
Name               Size   Autos  Total    Cost      Usage
BIGRAM             3F0      0       0       0        0.0%
NULL                 0      0       0       0        0.0%
CODE                 0      0       0       0        0.0%
BITCOMMON            E      0       0       1        0.0%
BITSFR0              0      0       0       1        0.0%
SFR0                 0      0       0       1        0.0%
COMMON               E      E       E       2      100.0%
BITSFR1              0      0       0       2        0.0%
SFR1                 0      0       0       2        0.0%
BITSFR2              0      0       0       3        0.0%
SFR2                 0      0       0       3        0.0%
STACK                0      0       0       3        0.0%
BITBANK0            10      0       0       4        0.0%
BITSFR3              0      0       0       4        0.0%
SFR3                 0      0       0       4        0.0%
BANK0               10     10      10       5      100.0%
BITSFR4              0      0       0       5        0.0%
SFR4                 0      0       0       5        0.0%
BITBANK1            10      0       0       6        0.0%
BITSFR5              0      0       0       6        0.0%
SFR5                 0      0       0       6        0.0%
BANK1               10      6       C       7       75.0%
BITSFR6              0      0       0       7        0.0%
SFR6                 0      0       0       7        0.0%
BITBANK2            10      0       0       8        0.0%
BITSFR7              0      0       0       8        0.0%
SFR7                 0      0       0       8        0.0%
BANK2               10      F       F       9       93.8%
BITSFR8              0      0       0       9        0.0%
SFR8                 0      0       0       9        0.0%
BITBANK3            50      0       0      10        0.0%
BITSFR9              0      0       0      10        0.0%
SFR9                 0      0       0      10        0.0%
BANK3               50      5      4F      11       98.8%
BITSFR10             0      0       0      11        0.0%
SFR10                0      0       0      11        0.0%
BITBANK4            50      0       0      12        0.0%
BITSFR11             0      0       0      12        0.0%
SFR11                0      0       0      12        0.0%
BANK4               50      0      12      13       22.5%
BITSFR12             0      0       0      13        0.0%
SFR12                0      0       0      13        0.0%
BITBANK5            50      0       0      14        0.0%
BITSFR13             0      0       0      14        0.0%
SFR13                0      0       0      14        0.0%
BANK5               50      0      40      15       80.0%
BITSFR14             0      0       0      15        0.0%
SFR14                0      0       0      15        0.0%
BITBANK6            50      0       0      16        0.0%
BITSFR15             0      0       0      16        0.0%
SFR15                0      0       0      16        0.0%
BANK6               50      0      40      17       80.0%
BITSFR16             0      0       0      17        0.0%
SFR16                0      0       0      17        0.0%
BITBANK7            50      0       0      18        0.0%
BITSFR17             0      0       0      18        0.0%
SFR17                0      0       0      18        0.0%
BANK7               50      0      40      19       80.0%
BITSFR18             0      0       0      19        0.0%
SFR18                0      0       0      19        0.0%
BITSFR19             0      0       0      20        0.0%
SFR19                0      0       0      20        0.0%
ABS                  0      0     15A      20        0.0%
BITBANK8            50      0       0      21        0.0%
BITSFR20             0      0       0      21        0.0%
SFR20                0      0       0      21        0.0%
BANK8               50      0       0      22        0.0%
BITSFR21             0      0       0      22        0.0%
SFR21                0      0       0      22        0.0%
BITBANK9            50      0       0      23        0.0%
BITSFR22             0      0       0      23        0.0%
SFR22                0      0       0      23        0.0%
BANK9               50      0       0      24        0.0%
BITSFR23             0      0       0      24        0.0%
SFR23                0      0       0      24        0.0%
BITBANK10           50      0       0      25        0.0%
BITSFR24             0      0       0      25        0.0%
SFR24                0      0       0      25        0.0%
BANK10              50      0       0      26        0.0%
BITSFR25             0      0       0      26        0.0%
SFR25                0      0       0      26        0.0%
BITBANK11           50      0       0      27        0.0%
BITSFR26             0      0       0      27        0.0%
SFR26                0      0       0      27        0.0%
BANK11              50      0       0      28        0.0%
BITSFR27             0      0       0      28        0.0%
SFR27                0      0       0      28        0.0%
BITBANK12           30      0       0      29        0.0%
BITSFR28             0      0       0      29        0.0%
SFR28                0      0       0      29        0.0%
BANK12              30      0       0      30        0.0%
BITSFR29             0      0       0      30        0.0%
SFR29                0      0       0      30        0.0%
BITSFR30             0      0       0      31        0.0%
SFR30                0      0       0      31        0.0%
DATA                 0      0     15A      31        0.0%
BITSFR31             0      0       0      32        0.0%
SFR31                0      0       0      32        0.0%


Microchip Technology PIC Macro Assembler V1.37 build -260352376 
Symbol Table                                                                                   Fri May 26 18:28:20 2017

                              _USB_SD_Ptr 04CC                                         pc 0002  
                             __CFG_CP$OFF 0000                               _SSPSTATbits 0214  
                           _USBDeviceInit 0595                        __size_of_CDCInitEP 003D  
                             __CFG_LVP$ON 0000      USER_USB_CALLBACK_EVENT_HANDLER@event 0060  
    USER_USB_CALLBACK_EVENT_HANDLER@pdata 0062                                       l233 17D5  
                                     l173 05DC               __end_of_USBStdGetDscHandler 0DD9  
                                     l660 0085                                       l565 1778  
                                     l662 0097                                       l663 00C9  
                                     l664 00DB                                       l665 010D  
                                     l666 011F                                       l667 0151  
                                     _BDT 0020                                       _RC2 0072  
                                     _RC3 0073                                       _RC4 0074  
                                     _RC5 0075                                       _RB7 006F  
                                     _UIE 0E92                                       _UIR 0E90  
                              _USBSuspend 17E1                      USBStdSetCfgHandler@i 006A  
                    USBStdSetCfgHandler@p 0067               __end_ofi1_SYSTEM_Initialize 1762  
                            __CFG_BORV$LO 0000                                       wreg 0009  
                          _USBDeviceTasks 0318                            _USBDeviceState 00E2  
                   ??_USBCtrlTrfRxService 0072                            ??_getsUSBUSART 016C  
                USBEnableEndpoint@options 0167                                      l4104 09EF  
                                    l4106 09F8                                      l4114 085B  
                                    l4202 05C3                                      l4300 0B57  
              USBConfigureEndpoint@handle 0166                                      l4118 0863  
                                    l4134 0E7A                                      l4126 0E6A  
                                    l4214 05E1                                      l4144 0EC3  
                                    l4152 1765                                      l4146 0EDB  
                                    l4242 0628                                      l4314 17C1  
                                    l4332 0417                                      l4324 040C  
                                    l4156 176C                                      l4236 0604  
                                    l4500 01B4                                      l4502 01C9  
                                    l4344 0440                                      l4440 006A  
                                    l4338 0437                                      l4194 05B6  
                                    l4186 05A5                                      l4290 0B21  
                                    l4356 045F                                      l4364 047C  
                                    l4508 01EB                                      l4382 04AD  
                                    l4366 0481                                      l4374 049E  
                                    l4278 17DA                                      l4286 0B0C  
                                    l4384 04B3                                      l4376 04A2  
                                    l4296 0B23                                      l4386 04C9  
                                    l4298 0B42                                      l4496 01B1  
                                    u4007 00A1                                      u4017 00B1  
                                    u4107 0149                                      u4027 00C1  
                                    u4117 015A                                      u4037 00D3  
                                    u4127 016A                                      u4047 00E5  
                                    u4137 017A                                      u4057 00F5  
                                    u4147 018A                                      u4067 0105  
                                    u3605 09CE                                      u4157 019A  
                                    u4077 0117                                      u3615 09D6  
                                    u4167 01AA                                      u4087 0129  
                                    u4097 0139                                      u3715 05C6  
                                    i1l35 093F                                      u3595 09C8  
                   ??_USBCtrlTrfTxService 0070                                      u3997 008F  
                                    _UCFG 0E91                                      _UEP0 0E98  
                                    _UEP1 0E99                                      _UEIE 0E97  
                                    _UEIR 0E93                                      _UCON 0E8E  
                            ?i1_CDCInitEP 0070                              __CFG_WRT$OFF 0000  
                         _CDCDataInHandle 01C6    USBStdFeatureReqHandler@current_ep_data 006A  
                                    _pDst 01DE                                      _main 0046  
                                    fsr0h 0005                                      fsr1h 0007  
                                    fsr0l 0004                                      indf0 0000  
                                    indf1 0001                               _BaudRateGen 01B8  
                                    fsr1l 0006                           _USBDeviceAttach 17C4  
                                    btemp 007E                                      ltemp 007E  
                                    start 0012                                      ttemp 007E  
                                    wtemp 007E                             __CFG_IESO$OFF 0000  
              __end_of_USBCheckStdRequest 07FC                    ??_USBCtrlTrfOutHandler 0076  
                           __CFG_MCLRE$ON 0000                 ??_USBStdFeatureReqHandler 0066  
                ??_USBStdGetStatusHandler 0070                            ?_USBDeviceInit 0070  
                             _writeBuffer 03A0                                     ?_main 0070  
              i1USBEnableEndpoint@options 0077                             __CFG_WDTE$OFF 0000  
       __size_of_USBCtrlEPServiceComplete 0092                                     _ANSC2 0C72  
                                   _ANSC3 0C73                    __end_of_USBDeviceTasks 03FC  
               ?_USBCtrlEPServiceComplete 0070                                     i1l323 0AAD  
                                   i1l173 0691                                     i1l326 0AF1  
                                   i1l190 0375                                     i1l271 0C30  
                                   i1l327 0AB6                                     i1l328 0AB9  
                                   i1l184 033A                                     i1l258 0FB6  
                                   i1l194 03A0                                     i1l371 0CDF  
                                   i1l419 02D5                                     i1l195 03F9  
                                   i1l196 03A9                                     i1l286 070F  
                                   i1l383 07FB                                     i1l385 07A2  
                                   i1l394 07D5                                     i1l565 1761  
                                   i1l479 0C13                                     _UADDR 0E96  
                                   _USTAT 0E8F        __size_of_USBCtrlEPAllowStatusStage 0072  
                          __CFG_FCMEN$OFF 0000           __end_of_USBCtrlEPAllowDataStage 0BB5  
                                   _sd000 0591                                     _sd001 0517  
                                   _sd002 054B            ?_USBIncrement1msInternalTimers 0070  
                                   main@a 01EE                            __CFG_BOREN$OFF 0000  
                                   ltemp0 007E                                     ltemp1 0082  
                                   ltemp2 0086                                     ltemp3 0080  
                       __end_of_CDCInitEP 097D                                     ttemp0 007E  
                                   ttemp1 0081                                     ttemp2 0084  
                                   ttemp3 0087                                     ttemp4 007F  
                                   status 0003                                     wtemp0 007E  
                                   wtemp1 0080                                     wtemp2 0082  
                                   wtemp3 0084                                     wtemp4 0086  
                                   wtemp5 0088                                     wtemp6 007F  
                         putUSBUSART@data 0162              __size_of_USBStdSetCfgHandler 008E  
                         __initialization 0014                              __end_of_main 01EF  
                   _control_signal_bitmap 01DC                            __CFG_LPBOR$OFF 0000  
               __size_of_USBCtrlEPService 0054                                    ??_main 01EA  
                         ?_USBDeviceTasks 0070                               ?_USBSuspend 0070  
                     __CFG_USBLSCLK$48MHz 0000                           i1_USBDeviceInit 064C  
                            _cdc_mem_type 01D8                   __end_of_USBDeviceAttach 17E1  
                        _CDCDataOutHandle 01C8                                    i1S4570 1000  
                                  _ACTCON 039B                           getsUSBUSART@len 016B  
                  SYSTEM_Initialize@state 0160                     __size_of_CDCTxService 00D0  
                                  i1l3010 026A                                    i1l3020 0285  
                                  i1l3012 0275                                    i1l3004 0256  
                                  i1l3022 028C                                    i1l3050 02FA  
                                  i1l3026 0297                                    i1l3140 076B  
                                  i1l3052 0303                                    i1l3036 02C0  
                                  i1l3300 0846                                    i1l3126 0717  
                                  i1l3046 02DB                                    i1l3038 02C6  
                                  i1l3070 0F84                                    i1l3302 084F  
                                  i1l3128 0730                                    i1l3160 07AB  
                                  i1l3138 075F                                    i1l3242 08D9  
                                  i1l3162 07AE                                    i1l3066 0F80  
                                  i1l2612 09AC                                    i1l3172 07BF  
                                  i1l3164 07B1                                    i1l3332 0895  
                                  i1l3270 0C9F                                    i1l3254 0905  
                                  i1l2702 0C01                                    i1l2614 09B5  
                                  i1l2622 081A                                    i1l3174 07C2  
                                  i1l3190 07F0                                    i1l3334 0897  
                                  i1l3280 0CC4                                    i1l3176 07C5  
                                  i1l3088 0FC5                                    i1l3096 0FCE  
                                  i1l3352 0A9B                                    i1l3424 0678  
                                  i1l3416 066C                                    i1l3408 065B  
                                  i1l2626 0821                                    i1l2642 0DF6  
                                  i1l2634 0DE6                                    i1l3186 07E2  
                                  i1l3354 0A9E                                    i1l3284 0CD3  
                                  i1l3268 0C9A                                    i1l2652 0E3F  
                                  i1l2724 174F                                    i1l2732 0909  
                                  i1l3436 0696                                    i1l2654 0E57  
                                  i1l2734 090D                                    i1l2742 0917  
                                  i1l3630 034B                                    i1l2760 0C29  
                                  i1l3288 0CE5                                    i1l2816 0D0F  
                                  i1l2680 0BD4                                    i1l2672 0BC8  
                                  i1l2728 1756                                    i1l2736 0911  
                                  i1l2920 0D6F                                    i1l3464 06D7  
                                  i1l3616 0334                                    i1l3608 0327  
                                  i1l2690 0BEB                                    i1l2738 0914  
                                  i1l2930 0DA5                                    i1l3458 06B3  
                                  i1l3642 0366                                    i1l2772 0C4A  
                                  i1l2780 0C5F                                    i1l2684 0BDB  
                                  i1l2916 0D65                                    i1l2908 0F58  
                                  i1l2852 0B99                                    i1l3652 037B  
                                  i1l3636 0351                                    i1l2782 0C63  
                                  i1l2790 0C78                                    i1l2942 0DCC  
                                  i1l2696 0BF9                                    i1l2936 0DC6  
                                  i1l2928 0DA2                                    i1l2848 0B86  
                                  i1l2938 0DC9                                    i1l2954 0AC9  
                                  i1l3666 0398                                    i1l3658 0382  
                                  i1l4572 0920                                    i1l2964 0AE5  
                                  i1l2892 0F27                                    i1l2876 0EFD  
                                  i1l2868 0EEC                                    i1l3692 03E0  
                                  i1l4574 093A                                    i1l2982 0205  
                                  i1l2798 177D                                    i1l2886 0F13  
                                  i1l3694 03EF                                    i1l3686 03C7  
                                  i1l2984 0207                                    i1l2998 0235  
                                  u208_25 0B90                                    u247_25 0709  
                                  u183_25 0985                                    u184_25 098B  
                                  u272_25 0A64                                    u185_25 0993  
                                  u284_25 067B                                    _OSCCON 0099  
                           CDCTxService@i 016C                                    _TRISC2 0472  
                                  _TRISB4 046C                                    _TRISC3 0473  
                                  _TRISC4 0474                                    _TRISB6 046E  
                                  _TRISC5 0475                                    _TRISB7 046F  
                                  _TRISC6 0476                                    _TRISC7 0477  
                                  _SSPBUF 0211              i1USBTransferOnePacket@handle 0079  
                          __CFG_PWRTE$OFF 0000                         _shortPacketStatus 01DF  
                         USBDeviceTasks@i 006F               USBStdFeatureReqHandler@pUEP 0068  
                USBTransferOnePacket@data 0161                USBCtrlTrfInHandler@lastDTS 0075  
                         ??_USBDeviceInit 0160                              ?_putUSBUSART 0160  
                          __CFG_STVREN$ON 0000                      __end_of_getsUSBUSART 0B59  
                       _USBEnableEndpoint 0852           __size_of_USBStdGetStatusHandler 0055  
                                  _memset 1779                      i1USBEnableEndpoint@p 007A  
                      ?_USBEnableEndpoint 0167                                    _stanje 02A0  
           __size_of_USBTransferOnePacket 0084                              _CDCTxService 03FC  
                     ??_USBEnableEndpoint 0168              i1USBConfigureEndpoint@handle 0076  
                             _CtrlTrfData 0058                      _controlTransferState 00E3  
                       _SYSTEM_Initialize 1762                   __end_of__initialization 0042  
              i1USBTransferOnePacket@data 0071                      __size_ofi1_CDCInitEP 0035  
                      ?_SYSTEM_Initialize 0070                  __size_of_USBStallHandler 0027  
                     __size_of_USBSuspend 001F                      i1USBDeviceInit@i_821 0073  
                          __pcstackCOMMON 0070                 __end_of_USBEnableEndpoint 0875  
                           __end_of_sd000 0595                             __end_of_sd001 054B  
                           __end_of_sd002 057F                       ??_SYSTEM_Initialize 0160  
        __size_of_USBCtrlEPAllowDataStage 005C             __size_of_USBConfigureEndpoint 0043  
                 __end_ofi1_USBDeviceInit 06F9               __end_of_USBCtrlTrfInHandler 0CE8  
                              _cdc_notice 0220                                _cdc_rx_len 01D9  
                              _cdc_tx_len 01DB                  ??_USBCtrlTrfSetupHandler 006E  
                 _USBTicksSinceSuspendEnd 01D7                          ?_USBDeviceAttach 0070  
               __end_of_SYSTEM_Initialize 1779                    _USBStdGetStatusHandler 0AA9  
                              __pbssBANK1 00E0                                __pbssBANK3 01A0  
                              __pbssBANK4 0220                                __pbssBANK5 02A0  
                              __pbssBANK6 0320                                __pbssBANK7 03A0  
             __size_of_USBWakeFromSuspend 0020                               _pBDTEntryIn 01A7  
        __end_of_USBCtrlEPServiceComplete 1000               __size_of_USBCheckCDCRequest 005F  
                              __pmaintext 0046                      USBCtrlTrfRxService@i 0074  
                         __CFG_PLLMULT$3x 0000                                __pintentry 0004  
            __size_ofi1_USBEnableEndpoint 0020                                   ?_memset 0070  
                              _device_dsc 057F                          _USBCtrlEPService 0A55  
                              _ep_data_in 01C0               __end_of_USBCtrlTrfRxService 079A  
                      _USBCheckStdRequest 079A                         _configDescriptor1 04D4  
             __end_of_USBCtrlTrfTxService 0C7C                       _USBStdSetCfgHandler 0EE0  
                                 u274_2m0 0A94                                   _SSP1BUF 0211  
                     ?_USBCheckStdRequest 0070              __size_of_USBStdGetDscHandler 007F  
                                 _UIEbits 0E92                                   _UIRbits 0E90  
            __size_ofi1_SYSTEM_Initialize 0015                             _cdc_trf_state 01DA  
                ??i1_USBTransferOnePacket 0074                                   _pCDCDst 01CA  
                                 _pCDCSrc 01CC                     __size_of_getsUSBUSART 005B  
         ??_USBIncrement1msInternalTimers 0070                      ?_USBStdSetCfgHandler 0070  
                               _CDCInitEP 0940                __size_of_USBEnableEndpoint 0023  
                              _readBuffer 0320                      ??_USBCheckStdRequest 006D  
           __size_of_USBCtrlTrfOutHandler 0037                          ??_USBDeviceTasks 00E9  
                       ??_USBStallHandler 0070                          ?i1_USBDeviceInit 0070  
                    __size_of_putUSBUSART 001B                        getsUSBUSART@buffer 016E  
                         __size_of_memset 0018                 __end_of_configDescriptor1 0517  
                                 __ptext1 17A9                                   __ptext2 0AFE  
                                 __ptext3 0595                                   __ptext4 17C4  
                                 __ptext5 1762                                   __ptext6 03FC  
                                 __ptext7 0940                                   __ptext8 0E5C  
                                 __ptext9 0852                                   _inPipes 01B3  
             _USBDeferOUTDataStagePackets 01D2                              ??_USBSuspend 0066  
                   i1USBEnableEndpoint@ep 007C                        __end_of_USB_CD_Ptr 04D4  
              __size_of_SYSTEM_Initialize 0017           __size_of_USBCtrlTrfSetupHandler 0053  
                                 clrloop0 080D                  ??i1_USBConfigureEndpoint 0071  
                    end_of_initialization 0042                              _getsUSBUSART 0AFE  
                      __end_of_USB_SD_Ptr 04D2                       _pBDTEntryEP0OutNext 00E0  
                                 memset@c 0072                                   memset@n 0074  
                                 memset@p 0076                           _USB1msTickCount 01BC  
         _dummy_encapsulated_cmd_response 022A                  ?_USBStdFeatureReqHandler 0070  
                   ??_USBStdSetCfgHandler 0066                          __CFG_CLKOUTEN$ON 0000  
                              ?_CDCInitEP 0070                        __end_of_USBSuspend 1800  
                 _USBCtrlEPAllowDataStage 0B59                              __pstringtext 04CC  
                _USBCtrlEPServiceComplete 0F6E                _USBStatusStageEnabledFlag1 01D4  
              _USBStatusStageEnabledFlag2 01D5                        USBEnableEndpoint@p 016A  
                        __CFG_FOSC$INTOSC 0000                        _BothEP0OutUOWNsSet 01CE  
               USBStdSetCfgHandler@i_1174 0069                 USBConfigureEndpoint@EPNum 0165  
              ?_USBCtrlEPAllowStatusStage 0070       USER_USB_CALLBACK_EVENT_HANDLER@size 0064  
                               _USTATcopy 00E5                  i1USBTransferOnePacket@ep 0078  
            __end_of_USBTransferOnePacket 0EE0           __size_ofi1_USBTransferOnePacket 0083  
                       putUSBUSART@length 0160                        __CFG_PLLEN$ENABLED 0000  
                      USBDeviceInit@i_821 0163                    _USBCtrlTrfSetupHandler 0A02  
                   __end_of_USBDeviceInit 064C     __end_of_USBIncrement1msInternalTimers 17A9  
  __size_of_USBIncrement1msInternalTimers 0018             _USBIncrement1msInternalTimers 1791  
                          __end_of_memset 1791                         _USBBusIsSuspended 01D0  
                     start_initialization 0014                   ?_USBStdGetStatusHandler 0070  
           USBCtrlTrfRxService@byteToRead 0075                               _cdc_data_rx 0120  
                             _cdc_data_tx 00A0              __end_of_USBConfigureEndpoint 0A02  
         __end_of_USBStdFeatureReqHandler 0318                       i1_USBEnableEndpoint 0812  
         __size_ofi1_USBConfigureEndpoint 0042                             ??i1_CDCInitEP 007D  
       __end_of_USBCtrlEPAllowStatusStage 0D5A                  __end_of_USBCtrlEPService 0AA9  
               ??_USBCtrlEPAllowDataStage 0073                               ??_CDCInitEP 016D  
                          USBDeviceInit@i 0164                            USBDeviceInit@p 0161  
                  _pBDTEntryEP0OutCurrent 00E4                   USBTransferOnePacket@dir 0160  
                 USBTransferOnePacket@len 0163               i1USBConfigureEndpoint@EPNum 0075  
                     _USBStdGetDscHandler 0D5A                      ?i1_USBEnableEndpoint 0077  
                                ??_memset 0076                       i1_SYSTEM_Initialize 174D  
                  i1_USBTransferOnePacket 0DD9                    _USBActiveConfiguration 01E9  
          __end_of_USBStdGetStatusHandler 0AFE                 i1USBTransferOnePacket@dir 0070  
               i1USBTransferOnePacket@len 0073                                 ___latbits 0002  
                           __pcstackBANK0 0060                             __pcstackBANK1 00E6  
                           __pcstackBANK2 0160                             __pcstackBANK3 01EA  
            __size_of_USBCtrlTrfInHandler 006C                      ?_USBStdGetDscHandler 0070  
                    ?i1_SYSTEM_Initialize 0070                __end_of_USBWakeFromSuspend 0852  
                         _USBStallHandler 0875                              _pBDTEntryOut 01AD  
              __end_of_USBCheckCDCRequest 0C14                  __size_of_USBDeviceAttach 001D  
                     __end_ofi1_CDCInitEP 08D1                     ??i1_USBEnableEndpoint 0078  
                  i1_USBConfigureEndpoint 097D                                 __pswtext1 1000  
                    _USBTransferOnePacket 0E5C                          main@numBytesRead 01ED  
            __end_of_USBCtrlTrfOutHandler 0908                     ??_USBStdGetDscHandler 0070  
                             _ep_data_out 01C3              __size_of_USBCtrlTrfRxService 00A1  
           USBConfigureEndpoint@direction 0160                     ??i1_SYSTEM_Initialize 0070  
            __size_of_USBCtrlTrfTxService 0068                ??_USBCtrlEPServiceComplete 0075  
                               clear_ram0 080C                                  _PIE1bits 0091  
                                _PIE2bits 0092                                  _PIR1bits 0011  
                                _PIR2bits 0012                             ??_putUSBUSART 0161  
                                _UEP0bits 0E98                _USBDeferINDataStagePackets 01D1  
             __size_of_USBCheckStdRequest 0062                                  _UCONbits 0E8E  
                    _USBConfigureEndpoint 09BF          __size_of_USBStdFeatureReqHandler 0129  
                   ?_USBTransferOnePacket 0160                         _SYS_InterruptHigh 0004  
                           ?_CDCTxService 0070                              _RemoteWakeup 01CF  
                      ?_SYS_InterruptHigh 0070                  __size_ofi1_USBDeviceInit 00AD  
                 __end_of_USBStallHandler 089C               ??_USBCtrlEPAllowStatusStage 0070  
             __end_of_USBStdSetCfgHandler 0F6E                               i1_CDCInitEP 089C  
                     ??_SYS_InterruptHigh 00EB                        __end_of_device_dsc 0591  
                 ?_USBCtrlTrfSetupHandler 0070                   USBStdGetStatusHandler@p 0071  
                  USBTransferOnePacket@ep 0168                                  _SetupPkt 0050  
                   ?_USBConfigureEndpoint 0160                         ??_USBDeviceAttach 0160  
               __end_of_SYS_InterruptHigh 0012                       __end_of_putUSBUSART 17C4  
                             _line_coding 01E0                            ??_CDCTxService 016B  
                 __size_of_USBDeviceTasks 00E4                                  __ptext10 09BF  
                                __ptext20 0F6E                                  __ptext12 0318  
                                __ptext21 0B59                                  __ptext13 064C  
                                __ptext30 089C                                  __ptext22 079A  
                                __ptext14 0832                                  __ptext31 0DD9  
                                __ptext23 0EE0                                  __ptext15 17E1  
                                __ptext32 0812                                  __ptext24 1779  
                                __ptext16 0875                                  __ptext33 097D  
                                __ptext25 0AA9                                  __ptext17 1791  
                                __ptext34 0BB5                                  __ptext26 0D5A  
                                __ptext18 0A55                                  __ptext35 08D1  
                                __ptext27 01EF                                  __ptext19 0A02  
                                __ptext36 06F9                                  __ptext28 0908  
                                __ptext37 0CE8                                  __ptext29 174D  
                                __ptext38 0C7C                                  __ptext39 0C14  
          __end_of_USBCtrlTrfSetupHandler 0A55                             __size_of_main 01A9  
                       ?_USBCtrlEPService 0070           i1USBConfigureEndpoint@direction 0070  
                      ??_USBCtrlEPService 00E6                       _USBCtrlTrfInHandler 0C7C  
                                _outPipes 01A0                      _USBCtrlTrfOutHandler 08D1  
                                int$flags 007E                   ?i1_USBTransferOnePacket 0070  
               _USBCtrlEPAllowStatusStage 0CE8                    ??_USBTransferOnePacket 0164  
               _USBDeferStatusStagePacket 01D3                  CDCTxService@byte_to_send 016D  
                        i1USBDeviceInit@i 0074                          i1USBDeviceInit@p 0071  
                              _INTCONbits 000B                  i1SYSTEM_Initialize@state 0070  
                    ?_USBCtrlTrfInHandler 0070             USBCtrlTrfTxService@byteToSend 0072  
                                memset@p1 0070                          ?_USBStallHandler 0070  
                USBStdFeatureReqHandler@p 006B                                  intlevel1 0000  
                  __size_of_USBDeviceInit 00B7   __end_of_USER_USB_CALLBACK_EVENT_HANDLER 0940  
__size_of_USER_USB_CALLBACK_EVENT_HANDLER 0038          ?_USER_USB_CALLBACK_EVENT_HANDLER 0060  
       ??_USER_USB_CALLBACK_EVENT_HANDLER 007E           _USER_USB_CALLBACK_EVENT_HANDLER 0908  
                       ??i1_USBDeviceInit 0070                   ?i1_USBConfigureEndpoint 0070  
          __end_ofi1_USBTransferOnePacket 0E5C                    ??_USBConfigureEndpoint 0161  
                   ?_USBCtrlTrfOutHandler 0070                               _putUSBUSART 17A9  
                    __CFG_CPUDIV$NOCLKDIV 0000                       _USBCtrlTrfRxService 06F9  
                      _USBWakeFromSuspend 0832                   _USBStdFeatureReqHandler 01EF  
                      _USBCheckCDCRequest 0BB5                       _USBCtrlTrfTxService 0C14  
              __size_of_SYS_InterruptHigh 000E                       ?_USBWakeFromSuspend 0070  
                   ??_USBCtrlTrfInHandler 0073                     _USBAlternateInterface 01E7  
                     ?_USBCheckCDCRequest 0070                               _SSPCON1bits 0215  
                     USBEnableEndpoint@ep 016C                           _endpoint_number 01DD  
                    ?_USBCtrlTrfRxService 0070                             ?_getsUSBUSART 016B  
                ?_USBCtrlEPAllowDataStage 0070                      ?_USBCtrlTrfTxService 0070  
            _USBStatusStageTimeoutCounter 01D6            __end_ofi1_USBConfigureEndpoint 09BF  
                    ??_USBWakeFromSuspend 0066               __end_ofi1_USBEnableEndpoint 0832  
              USBTransferOnePacket@handle 0169                      __end_of_CDCTxService 04CC  
                    ??_USBCheckCDCRequest 0070                                _USB_CD_Ptr 04D2  
